	.file	"test-cpu-determinism.c"
	.text
.Ltext0:
	.file 0 "/home/simon/cpu-determinism" "test-cpu-determinism.c"
	.p2align 4
	.globl	comp
	.type	comp, @function
comp:
.LVL0:
.LFB64:
	.file 1 "test-cpu-determinism.c"
	.loc 1 161 51 view -0
	.cfi_startproc
	.loc 1 161 51 is_stmt 0 view .LVU1
	endbr64
	.loc 1 162 5 is_stmt 1 view .LVU2
.LVL1:
	.loc 1 163 5 view .LVU3
	.loc 1 164 5 view .LVU4
	.loc 1 164 8 is_stmt 0 view .LVU5
	movl	(%rsi), %edx
	.loc 1 164 24 view .LVU6
	movl	$1, %eax
	.loc 1 164 8 view .LVU7
	cmpl	%edx, (%rdi)
	jg	.L1
	.loc 1 165 5 is_stmt 1 view .LVU8
	.loc 1 165 8 is_stmt 0 view .LVU9
	setl	%al
	movzbl	%al, %eax
	negl	%eax
.L1:
	.loc 1 167 1 view .LVU10
	ret
	.cfi_endproc
.LFE64:
	.size	comp, .-comp
	.p2align 4
	.globl	timespecsub
	.type	timespecsub, @function
timespecsub:
.LVL2:
.LFB60:
	.loc 1 29 90 is_stmt 1 view -0
	.cfi_startproc
	.loc 1 29 90 is_stmt 0 view .LVU12
	endbr64
	.loc 1 30 5 is_stmt 1 view .LVU13
	.loc 1 31 39 is_stmt 0 view .LVU14
	movq	(%rdi), %rcx
	.loc 1 30 24 view .LVU15
	movq	8(%rdi), %rax
	.loc 1 31 39 view .LVU16
	subq	(%rsi), %rcx
	.loc 1 30 8 view .LVU17
	subq	8(%rsi), %rax
	jns	.L6
	.loc 1 31 9 is_stmt 1 view .LVU18
	.loc 1 31 55 is_stmt 0 view .LVU19
	subq	$1, %rcx
	.loc 1 32 9 is_stmt 1 view .LVU20
	.loc 1 32 58 is_stmt 0 view .LVU21
	addq	$1000000000, %rax
.L6:
	.loc 1 35 24 view .LVU22
	movq	%rcx, (%rdx)
	.loc 1 36 25 view .LVU23
	movq	%rax, 8(%rdx)
	.loc 1 39 5 is_stmt 1 view .LVU24
	.loc 1 40 1 is_stmt 0 view .LVU25
	ret
	.cfi_endproc
.LFE60:
	.size	timespecsub, .-timespecsub
	.section	.rodata.str1.8,"aMS",@progbits,1
	.align 8
.LC3:
	.string	"%.6f %s // %lu=iteration using clock_gettime(CLOCK_MONOTONIC) for clock at %lu avg ns of %'lu invokes\n"
	.text
	.p2align 4
	.globl	ini_time
	.type	ini_time, @function
ini_time:
.LFB63:
	.loc 1 55 21 is_stmt 1 view -0
	.cfi_startproc
	endbr64
	pushq	%r14
	.cfi_def_cfa_offset 16
	.cfi_offset 14, -16
.LBB105:
.LBB106:
	.loc 1 18 5 is_stmt 0 view .LVU27
	xorl	%esi, %esi
.LBE106:
.LBE105:
	.loc 1 55 21 view .LVU28
	pushq	%r13
	.cfi_def_cfa_offset 24
	.cfi_offset 13, -24
	pushq	%r12
	.cfi_def_cfa_offset 32
	.cfi_offset 12, -32
	pushq	%rbp
	.cfi_def_cfa_offset 40
	.cfi_offset 6, -40
	pushq	%rbx
	.cfi_def_cfa_offset 48
	.cfi_offset 3, -48
	subq	$48, %rsp
	.cfi_def_cfa_offset 96
	.loc 1 55 21 view .LVU29
	movq	%fs:40, %rax
	movq	%rax, 40(%rsp)
	xorl	%eax, %eax
	.loc 1 56 5 is_stmt 1 view .LVU30
.LBB109:
.LBI105:
	.loc 1 16 46 view .LVU31
.LBB107:
	.loc 1 17 5 view .LVU32
	.loc 1 18 5 view .LVU33
	leaq	16(%rsp), %r12
	movq	%r12, %rdi
	call	gettimeofday@PLT
.LVL3:
	.loc 1 19 5 view .LVU34
	.loc 1 19 40 is_stmt 0 view .LVU35
	pxor	%xmm0, %xmm0
	.loc 1 19 12 view .LVU36
	pxor	%xmm1, %xmm1
.LBE107:
.LBE109:
.LBB110:
	.loc 1 58 27 view .LVU37
	cmpq	$0, invokes(%rip)
.LBE110:
.LBB111:
.LBB108:
	.loc 1 19 40 view .LVU38
	cvtsi2sdq	24(%rsp), %xmm0
	.loc 1 19 38 view .LVU39
	mulsd	.LC0(%rip), %xmm0
	.loc 1 19 12 view .LVU40
	cvtsi2sdq	16(%rsp), %xmm1
	.loc 1 19 30 view .LVU41
	addsd	%xmm1, %xmm0
	movsd	%xmm0, (%rsp)
.LVL4:
	.loc 1 19 30 view .LVU42
.LBE108:
.LBE111:
	.loc 1 57 5 is_stmt 1 view .LVU43
	.loc 1 58 5 view .LVU44
.LBB112:
	.loc 1 58 9 view .LVU45
	.loc 1 58 27 view .LVU46
	je	.L8
	.loc 1 58 18 is_stmt 0 view .LVU47
	xorl	%ebx, %ebx
	leaq	ts_start(%rip), %rbp
.LVL5:
	.p2align 4,,10
	.p2align 3
.L9:
	.loc 1 59 9 is_stmt 1 discriminator 3 view .LVU48
	.loc 1 59 14 is_stmt 0 discriminator 3 view .LVU49
	movq	%rbp, %rsi
	movl	$1, %edi
	.loc 1 58 40 discriminator 3 view .LVU50
	addq	$1, %rbx
.LVL6:
	.loc 1 59 14 discriminator 3 view .LVU51
	call	clock_gettime@PLT
.LVL7:
	.loc 1 58 40 is_stmt 1 discriminator 3 view .LVU52
	.loc 1 58 27 discriminator 3 view .LVU53
	cmpq	%rbx, invokes(%rip)
	ja	.L9
.LVL8:
.L8:
	.loc 1 58 27 is_stmt 0 discriminator 3 view .LVU54
.LBE112:
	.loc 1 61 5 is_stmt 1 view .LVU55
.LBB113:
.LBI113:
	.loc 1 16 46 view .LVU56
.LBB114:
	.loc 1 17 5 view .LVU57
	.loc 1 18 5 view .LVU58
	xorl	%esi, %esi
	movq	%r12, %rdi
	call	gettimeofday@PLT
.LVL9:
	.loc 1 19 5 view .LVU59
	.loc 1 19 40 is_stmt 0 view .LVU60
	pxor	%xmm1, %xmm1
	.loc 1 19 12 view .LVU61
	pxor	%xmm0, %xmm0
.LBE114:
.LBE113:
.LBB118:
.LBB119:
	.loc 1 18 5 view .LVU62
	xorl	%esi, %esi
.LBE119:
.LBE118:
.LBB123:
.LBB115:
	.loc 1 19 40 view .LVU63
	cvtsi2sdq	24(%rsp), %xmm1
	.loc 1 19 38 view .LVU64
	mulsd	.LC0(%rip), %xmm1
.LBE115:
.LBE123:
.LBB124:
.LBB120:
	.loc 1 18 5 view .LVU65
	movq	%r12, %rdi
.LBE120:
.LBE124:
	.loc 1 63 50 view .LVU66
	movq	invokes(%rip), %rbx
.LBB125:
.LBB116:
	.loc 1 19 12 view .LVU67
	cvtsi2sdq	16(%rsp), %xmm0
.LBE116:
.LBE125:
	.loc 1 64 5 view .LVU68
	movq	iteration(%rip), %r14
	movq	use_what(%rip), %r13
.LBB126:
.LBB117:
	.loc 1 19 30 view .LVU69
	addsd	%xmm0, %xmm1
	movsd	%xmm1, 8(%rsp)
.LVL10:
	.loc 1 19 30 view .LVU70
.LBE117:
.LBE126:
	.loc 1 62 5 is_stmt 1 view .LVU71
	.loc 1 63 5 view .LVU72
	.loc 1 64 5 view .LVU73
.LBB127:
.LBI118:
	.loc 1 16 46 view .LVU74
.LBB121:
	.loc 1 17 5 view .LVU75
	.loc 1 18 5 view .LVU76
	call	gettimeofday@PLT
.LVL11:
	.loc 1 19 5 view .LVU77
	.loc 1 19 40 is_stmt 0 view .LVU78
	pxor	%xmm0, %xmm0
	.loc 1 19 12 view .LVU79
	pxor	%xmm2, %xmm2
.LBE121:
.LBE127:
.LBB128:
.LBB129:
	.file 2 "/usr/include/x86_64-linux-gnu/bits/stdio2.h"
	.loc 2 112 10 view .LVU80
	movsd	8(%rsp), %xmm1
	movq	40(%rsp), %rax
	subq	%fs:40, %rax
.LBE129:
.LBE128:
.LBB137:
.LBB122:
	.loc 1 19 40 view .LVU81
	cvtsi2sdq	24(%rsp), %xmm0
	.loc 1 19 38 view .LVU82
	mulsd	.LC0(%rip), %xmm0
	.loc 1 19 12 view .LVU83
	cvtsi2sdq	16(%rsp), %xmm2
	.loc 1 19 30 view .LVU84
	addsd	%xmm2, %xmm0
.LVL12:
	.loc 1 19 30 view .LVU85
.LBE122:
.LBE137:
.LBB138:
.LBI128:
	.loc 2 110 1 is_stmt 1 view .LVU86
.LBB130:
	.loc 2 112 3 view .LVU87
	.loc 2 112 10 is_stmt 0 view .LVU88
	jne	.L18
.LBE130:
.LBE138:
	.loc 1 62 12 view .LVU89
	subsd	(%rsp), %xmm1
	.loc 1 63 37 view .LVU90
	mulsd	.LC1(%rip), %xmm1
	.loc 1 63 50 view .LVU91
	testq	%rbx, %rbx
	js	.L11
	pxor	%xmm2, %xmm2
	cvtsi2sdq	%rbx, %xmm2
.L12:
	divsd	%xmm2, %xmm1
	.loc 1 63 14 view .LVU92
	movsd	.LC2(%rip), %xmm2
	comisd	%xmm2, %xmm1
	jnb	.L13
	cvttsd2siq	%xmm1, %r8
.LVL13:
.L14:
	.loc 1 65 1 view .LVU93
	addq	$48, %rsp
	.cfi_remember_state
	.cfi_def_cfa_offset 48
.LBB139:
.LBB131:
	.loc 2 112 10 view .LVU94
	movq	%rbx, %r9
	movq	%r14, %rcx
	movq	%r13, %rdx
.LBE131:
.LBE139:
	.loc 1 65 1 view .LVU95
	popq	%rbx
	.cfi_def_cfa_offset 40
.LBB140:
.LBB132:
	.loc 2 112 10 view .LVU96
	movl	$1, %edi
.LBE132:
.LBE140:
	.loc 1 65 1 view .LVU97
	popq	%rbp
	.cfi_def_cfa_offset 32
.LBB141:
.LBB133:
	.loc 2 112 10 view .LVU98
	movl	$1, %eax
.LBE133:
.LBE141:
	.loc 1 65 1 view .LVU99
	popq	%r12
	.cfi_def_cfa_offset 24
.LBB142:
.LBB134:
	.loc 2 112 10 view .LVU100
	leaq	.LC3(%rip), %rsi
.LBE134:
.LBE142:
	.loc 1 65 1 view .LVU101
	popq	%r13
	.cfi_def_cfa_offset 16
	popq	%r14
	.cfi_def_cfa_offset 8
.LBB143:
.LBB135:
	.loc 2 112 10 view .LVU102
	jmp	__printf_chk@PLT
.LVL14:
	.p2align 4,,10
	.p2align 3
.L13:
	.cfi_restore_state
	.loc 2 112 10 view .LVU103
.LBE135:
.LBE143:
	.loc 1 63 14 view .LVU104
	subsd	%xmm2, %xmm1
	cvttsd2siq	%xmm1, %r8
	btcq	$63, %r8
.LVL15:
	.loc 1 63 14 view .LVU105
	jmp	.L14
.LVL16:
	.p2align 4,,10
	.p2align 3
.L11:
	.loc 1 63 50 view .LVU106
	movq	%rbx, %rax
	movq	%rbx, %rdx
	pxor	%xmm2, %xmm2
	shrq	%rax
	andl	$1, %edx
	orq	%rdx, %rax
	cvtsi2sdq	%rax, %xmm2
	addsd	%xmm2, %xmm2
	jmp	.L12
.L18:
.LBB144:
.LBB136:
	.loc 2 112 10 view .LVU107
	call	__stack_chk_fail@PLT
.LVL17:
.LBE136:
.LBE144:
	.cfi_endproc
.LFE63:
	.size	ini_time, .-ini_time
	.p2align 4
	.globl	burn_cpu
	.type	burn_cpu, @function
burn_cpu:
.LVL18:
.LFB65:
	.loc 1 178 57 is_stmt 1 view -0
	.cfi_startproc
	.loc 1 178 57 is_stmt 0 view .LVU109
	endbr64
	pushq	%r12
	.cfi_def_cfa_offset 16
	.cfi_offset 12, -16
	pushq	%rbp
	.cfi_def_cfa_offset 24
	.cfi_offset 6, -24
	pushq	%rbx
	.cfi_def_cfa_offset 32
	.cfi_offset 3, -32
	movl	%edi, %ebx
.LBB155:
.LBB156:
	.loc 1 45 5 view .LVU110
	movl	$1, %edi
.LVL19:
	.loc 1 45 5 view .LVU111
.LBE156:
.LBE155:
	.loc 1 178 57 view .LVU112
	subq	$48, %rsp
	.cfi_def_cfa_offset 80
	.loc 1 178 57 view .LVU113
	movq	%fs:40, %rax
	movq	%rax, 40(%rsp)
	xorl	%eax, %eax
	.loc 1 179 5 is_stmt 1 view .LVU114
.LBB161:
.LBB159:
	.loc 1 45 5 is_stmt 0 view .LVU115
	leaq	16(%rsp), %r12
.LBE159:
.LBE161:
	.loc 1 179 25 view .LVU116
	movq	$0, 8(%rsp)
	.loc 1 180 5 is_stmt 1 view .LVU117
.LBB162:
.LBI155:
	.loc 1 42 48 view .LVU118
.LBB160:
	.loc 1 43 5 view .LVU119
	.loc 1 44 5 view .LVU120
	.loc 1 45 5 view .LVU121
	movq	%r12, %rsi
	call	clock_gettime@PLT
.LVL20:
	.loc 1 46 5 view .LVU122
.LBB157:
.LBI157:
	.loc 1 29 6 view .LVU123
.LBB158:
	.loc 1 30 5 view .LVU124
	.loc 1 31 39 is_stmt 0 view .LVU125
	movq	16(%rsp), %rbp
	.loc 1 30 24 view .LVU126
	movq	24(%rsp), %rax
	.loc 1 31 39 view .LVU127
	subq	ts_start(%rip), %rbp
	.loc 1 30 8 view .LVU128
	subq	8+ts_start(%rip), %rax
	jns	.L21
	.loc 1 31 9 is_stmt 1 view .LVU129
	.loc 1 31 55 is_stmt 0 view .LVU130
	subq	$1, %rbp
.LVL21:
	.loc 1 32 9 is_stmt 1 view .LVU131
	.loc 1 32 58 is_stmt 0 view .LVU132
	addq	$1000000000, %rax
.LVL22:
.L21:
	.loc 1 39 5 is_stmt 1 view .LVU133
	.loc 1 39 5 is_stmt 0 view .LVU134
.LBE158:
.LBE157:
	.loc 1 47 5 is_stmt 1 view .LVU135
	.loc 1 47 35 is_stmt 0 view .LVU136
	imulq	$1000000000, %rbp, %rbp
.LVL23:
	.loc 1 47 49 view .LVU137
	addq	%rax, %rbp
.LVL24:
	.loc 1 48 5 is_stmt 1 view .LVU138
	.p2align 4,,10
	.p2align 3
.L22:
	.loc 1 48 5 is_stmt 0 view .LVU139
.LBE160:
.LBE162:
	.loc 1 181 5 is_stmt 1 discriminator 1 view .LVU140
	.loc 1 182 9 discriminator 1 view .LVU141
	.loc 1 183 15 is_stmt 0 discriminator 1 view .LVU142
	movq	8(%rsp), %rax
	.loc 1 182 15 discriminator 1 view .LVU143
	subl	$1, %ebx
.LVL25:
	.loc 1 183 9 is_stmt 1 discriminator 1 view .LVU144
	.loc 1 183 15 is_stmt 0 discriminator 1 view .LVU145
	addq	$1, %rax
	movq	%rax, 8(%rsp)
	.loc 1 184 19 is_stmt 1 discriminator 1 view .LVU146
	testl	%ebx, %ebx
	jg	.L22
	.loc 1 185 5 view .LVU147
.LBB163:
.LBI163:
	.loc 1 42 48 view .LVU148
.LBB164:
	.loc 1 43 5 view .LVU149
	.loc 1 44 5 view .LVU150
	.loc 1 45 5 view .LVU151
	movq	%r12, %rsi
	movl	$1, %edi
	call	clock_gettime@PLT
.LVL26:
	.loc 1 46 5 view .LVU152
.LBB165:
.LBI165:
	.loc 1 29 6 view .LVU153
.LBB166:
	.loc 1 30 5 view .LVU154
	.loc 1 30 24 is_stmt 0 view .LVU155
	movq	24(%rsp), %rax
	.loc 1 30 8 view .LVU156
	subq	8+ts_start(%rip), %rax
	movq	%rax, %rdx
	.loc 1 31 39 view .LVU157
	movq	16(%rsp), %rax
	.loc 1 30 8 view .LVU158
	js	.L28
	.loc 1 35 9 is_stmt 1 view .LVU159
	.loc 1 35 39 is_stmt 0 view .LVU160
	subq	ts_start(%rip), %rax
.LVL27:
	.loc 1 36 9 is_stmt 1 view .LVU161
.L24:
	.loc 1 39 5 view .LVU162
	.loc 1 39 5 is_stmt 0 view .LVU163
.LBE166:
.LBE165:
	.loc 1 47 5 is_stmt 1 view .LVU164
	.loc 1 48 5 view .LVU165
	.loc 1 48 5 is_stmt 0 view .LVU166
.LBE164:
.LBE163:
	.loc 1 186 5 is_stmt 1 view .LVU167
.LBB171:
.LBI171:
	.loc 1 51 48 view .LVU168
.LBB172:
	.loc 1 52 5 view .LVU169
	.loc 1 52 5 is_stmt 0 view .LVU170
.LBE172:
.LBE171:
.LBB174:
.LBB169:
	.loc 1 47 35 view .LVU171
	imulq	$1000000000, %rax, %rax
.LVL28:
	.loc 1 47 49 view .LVU172
	addq	%rdx, %rax
.LVL29:
	.loc 1 47 49 view .LVU173
.LBE169:
.LBE174:
.LBB175:
.LBB173:
	.loc 1 52 15 view .LVU174
	subq	%rbp, %rax
.LVL30:
	.loc 1 52 15 view .LVU175
.LBE173:
.LBE175:
	.loc 1 187 1 view .LVU176
	movq	40(%rsp), %rdx
	subq	%fs:40, %rdx
.LVL31:
	.loc 1 187 1 view .LVU177
	jne	.L29
	addq	$48, %rsp
	.cfi_remember_state
	.cfi_def_cfa_offset 32
	popq	%rbx
	.cfi_def_cfa_offset 24
.LVL32:
	.loc 1 187 1 view .LVU178
	popq	%rbp
	.cfi_def_cfa_offset 16
.LVL33:
	.loc 1 187 1 view .LVU179
	popq	%r12
	.cfi_def_cfa_offset 8
	ret
.LVL34:
	.p2align 4,,10
	.p2align 3
.L28:
	.cfi_restore_state
.LBB176:
.LBB170:
.LBB168:
.LBB167:
	.loc 1 31 9 is_stmt 1 view .LVU180
	.loc 1 31 39 is_stmt 0 view .LVU181
	subq	ts_start(%rip), %rax
	.loc 1 32 58 view .LVU182
	addq	$1000000000, %rdx
	.loc 1 31 55 view .LVU183
	subq	$1, %rax
.LVL35:
	.loc 1 32 9 is_stmt 1 view .LVU184
	.loc 1 32 9 is_stmt 0 view .LVU185
	jmp	.L24
.LVL36:
.L29:
	.loc 1 32 9 view .LVU186
.LBE167:
.LBE168:
.LBE170:
.LBE176:
	.loc 1 187 1 view .LVU187
	call	__stack_chk_fail@PLT
.LVL37:
	.cfi_endproc
.LFE65:
	.size	burn_cpu, .-burn_cpu
	.section	.rodata.str1.1,"aMS",@progbits,1
.LC5:
	.string	""
.LC6:
	.string	"USE_ITERATIONS"
	.section	.rodata.str1.8
	.align 8
.LC7:
	.string	"%.6f %s // start %d=cpu_num %lu=iterations %s=getenv(\"USE_ITERATIONS\")\n"
	.section	.rodata.str1.1
.LC8:
	.string	"%.6f %s  %4u=REPEATS ns:"
.LC9:
	.string	" %*s"
.LC10:
	.string	"%.6f %s %'11d=loops"
.LC11:
	.string	"test-cpu-determinism.c"
.LC12:
	.string	"p001 >= p000"
.LC13:
	.string	"p025 >= p001"
.LC14:
	.string	"p050 >= p025"
.LC15:
	.string	"p075 >= p050"
.LC16:
	.string	"p099 >= p075"
.LC17:
	.string	"p100 >= p099"
.LC19:
	.string	"n/a"
.LC20:
	.string	" %10s"
.LC21:
	.string	" %'10lu"
.LC22:
	.string	" %+'8.1f"
.LC23:
	.string	" %'11lu"
.LC24:
	.string	" %8s"
.LC25:
	.string	" %'+9.1f"
.LC26:
	.string	" %'+11.1f"
.LC27:
	.string	" %+'10.3f"
.LC28:
	.string	" %3luM"
.LC30:
	.string	" %.1fM"
.LC32:
	.string	" %3luK"
.LC33:
	.string	" %.1fK"
.LC35:
	.string	" %3lu "
.LC36:
	.string	"%8s"
.LC37:
	.string	" %+7.1f"
.LC38:
	.string	" %9.6f"
.LC39:
	.string	"\r"
.LC40:
	.string	"%.6f %s // exit\n"
	.section	.text.startup,"ax",@progbits
	.p2align 4
	.globl	main
	.type	main, @function
main:
.LFB66:
	.loc 1 189 16 is_stmt 1 view -0
	.cfi_startproc
	endbr64
	pushq	%r15
	.cfi_def_cfa_offset 16
	.cfi_offset 15, -16
	.loc 1 190 5 is_stmt 0 view .LVU189
	movl	$1, %edi
	leaq	.LC5(%rip), %rsi
	.loc 1 189 16 view .LVU190
	pushq	%r14
	.cfi_def_cfa_offset 24
	.cfi_offset 14, -24
	pushq	%r13
	.cfi_def_cfa_offset 32
	.cfi_offset 13, -32
	pushq	%r12
	.cfi_def_cfa_offset 40
	.cfi_offset 12, -40
	pushq	%rbp
	.cfi_def_cfa_offset 48
	.cfi_offset 6, -48
	.loc 1 192 8 view .LVU191
	leaq	.LC6(%rip), %rbp
	.loc 1 189 16 view .LVU192
	pushq	%rbx
	.cfi_def_cfa_offset 56
	.cfi_offset 3, -56
	subq	$136, %rsp
	.cfi_def_cfa_offset 192
	.loc 1 189 16 view .LVU193
	movq	%fs:40, %rax
	movq	%rax, 120(%rsp)
	xorl	%eax, %eax
	.loc 1 190 5 is_stmt 1 view .LVU194
	call	setlocale@PLT
.LVL38:
	.loc 1 191 5 view .LVU195
	.loc 1 191 19 is_stmt 0 view .LVU196
	call	sched_getcpu@PLT
.LVL39:
	.loc 1 192 8 view .LVU197
	movq	%rbp, %rdi
	.loc 1 191 19 view .LVU198
	movl	%eax, %r12d
.LVL40:
	.loc 1 192 5 is_stmt 1 view .LVU199
	.loc 1 192 8 is_stmt 0 view .LVU200
	call	getenv@PLT
.LVL41:
	.loc 1 192 7 view .LVU201
	testq	%rax, %rax
	je	.L31
	.loc 1 193 9 is_stmt 1 view .LVU202
	.loc 1 193 27 is_stmt 0 view .LVU203
	movq	%rbp, %rdi
	call	getenv@PLT
.LVL42:
.LBB177:
.LBB178:
	.file 3 "/usr/include/stdlib.h"
	.loc 3 364 16 view .LVU204
	movl	$10, %edx
	xorl	%esi, %esi
.LBE178:
.LBE177:
	.loc 1 193 27 view .LVU205
	movq	%rax, %rdi
.LVL43:
.LBB180:
.LBI177:
	.loc 3 362 1 is_stmt 1 view .LVU206
.LBB179:
	.loc 3 364 3 view .LVU207
	.loc 3 364 16 is_stmt 0 view .LVU208
	call	strtol@PLT
.LVL44:
	.loc 3 364 16 view .LVU209
.LBE179:
.LBE180:
	.loc 1 193 22 view .LVU210
	cltq
	.loc 1 194 9 is_stmt 1 view .LVU211
	.loc 1 194 50 is_stmt 0 view .LVU212
	testq	%rax, %rax
	je	.L74
.L32:
	.loc 1 194 20 discriminator 4 view .LVU213
	movq	%rax, iterations(%rip)
.L31:
	.loc 1 196 5 is_stmt 1 view .LVU214
	movq	%rbp, %rdi
	leaq	1600+ns(%rip), %r14
	call	getenv@PLT
.LVL45:
.LBB181:
.LBB182:
	.loc 1 18 5 is_stmt 0 view .LVU215
	leaq	96(%rsp), %rdi
	xorl	%esi, %esi
.LBE182:
.LBE181:
	.loc 1 196 5 view .LVU216
	movq	iterations(%rip), %rbp
.LBB190:
.LBB183:
	.loc 1 18 5 view .LVU217
	movq	%rdi, 8(%rsp)
.LBE183:
.LBE190:
	.loc 1 196 5 view .LVU218
	movq	use_what(%rip), %r13
.LBB191:
.LBI181:
	.loc 1 16 46 is_stmt 1 view .LVU219
.LBB184:
	.loc 1 17 5 view .LVU220
	.loc 1 18 5 view .LVU221
.LBE184:
.LBE191:
	.loc 1 196 5 is_stmt 0 view .LVU222
	movq	%rax, %rbx
.LBB192:
.LBB185:
	.loc 1 18 5 view .LVU223
	call	gettimeofday@PLT
.LVL46:
	.loc 1 19 5 is_stmt 1 view .LVU224
	.loc 1 19 40 is_stmt 0 view .LVU225
	pxor	%xmm0, %xmm0
	.loc 1 19 12 view .LVU226
	pxor	%xmm1, %xmm1
.LBE185:
.LBE192:
.LBB193:
.LBB194:
	.loc 2 112 10 view .LVU227
	movq	%rbx, %r9
.LBE194:
.LBE193:
.LBB199:
.LBB186:
	.loc 1 19 40 view .LVU228
	cvtsi2sdq	104(%rsp), %xmm0
.LBE186:
.LBE199:
.LBB200:
.LBB195:
	.loc 2 112 10 view .LVU229
	movq	%rbp, %r8
	movl	%r12d, %ecx
	movq	%r13, %rdx
.LBE195:
.LBE200:
.LBB201:
.LBB187:
	.loc 1 19 38 view .LVU230
	mulsd	.LC0(%rip), %xmm0
.LBE187:
.LBE201:
.LBB202:
.LBB196:
	.loc 2 112 10 view .LVU231
	movl	$1, %edi
	movl	$1, %eax
.LBE196:
.LBE202:
.LBB203:
.LBB188:
	.loc 1 19 12 view .LVU232
	cvtsi2sdq	96(%rsp), %xmm1
.LBE188:
.LBE203:
.LBB204:
.LBB197:
	.loc 2 112 10 view .LVU233
	leaq	.LC7(%rip), %rsi
.LBE197:
.LBE204:
.LBB205:
.LBB189:
	.loc 1 19 30 view .LVU234
	addsd	%xmm1, %xmm0
.LVL47:
	.loc 1 19 30 view .LVU235
.LBE189:
.LBE205:
.LBB206:
.LBI193:
	.loc 2 110 1 is_stmt 1 view .LVU236
.LBB198:
	.loc 2 112 3 view .LVU237
	.loc 2 112 10 is_stmt 0 view .LVU238
	call	__printf_chk@PLT
.LVL48:
.L33:
	.loc 2 112 10 view .LVU239
.LBE198:
.LBE206:
	.loc 1 197 14 is_stmt 1 view .LVU240
	.loc 1 198 5 view .LVU241
	call	ini_time
.LVL49:
	.loc 1 199 5 view .LVU242
.LBB207:
.LBB208:
	.loc 1 18 5 is_stmt 0 view .LVU243
	movq	8(%rsp), %rdi
	xorl	%esi, %esi
.LBE208:
.LBE207:
	.loc 1 199 5 view .LVU244
	movq	use_what(%rip), %r12
.LBB213:
.LBI207:
	.loc 1 16 46 is_stmt 1 view .LVU245
.LBB209:
	.loc 1 17 5 view .LVU246
	.loc 1 18 5 view .LVU247
	call	gettimeofday@PLT
.LVL50:
	.loc 1 19 5 view .LVU248
	.loc 1 19 40 is_stmt 0 view .LVU249
	pxor	%xmm0, %xmm0
	.loc 1 19 12 view .LVU250
	pxor	%xmm1, %xmm1
.LBE209:
.LBE213:
.LBB214:
.LBB215:
	.loc 2 112 10 view .LVU251
	movq	%r12, %rdx
	movl	$200, %ecx
.LBE215:
.LBE214:
.LBB219:
.LBB210:
	.loc 1 19 40 view .LVU252
	cvtsi2sdq	104(%rsp), %xmm0
.LBE210:
.LBE219:
.LBB220:
.LBB216:
	.loc 2 112 10 view .LVU253
	leaq	.LC8(%rip), %rsi
	movl	$1, %edi
.LBE216:
.LBE220:
.LBB221:
.LBB211:
	.loc 1 19 38 view .LVU254
	mulsd	.LC0(%rip), %xmm0
	.loc 1 19 12 view .LVU255
	cvtsi2sdq	96(%rsp), %xmm1
.LBE211:
.LBE221:
.LBB222:
.LBB217:
	.loc 2 112 10 view .LVU256
	movl	$1, %eax
.LBE217:
.LBE222:
.LBB223:
.LBB212:
	.loc 1 19 30 view .LVU257
	addsd	%xmm1, %xmm0
.LVL51:
	.loc 1 19 30 view .LVU258
.LBE212:
.LBE223:
.LBB224:
.LBI214:
	.loc 2 110 1 is_stmt 1 view .LVU259
.LBB218:
	.loc 2 112 3 view .LVU260
	.loc 2 112 10 is_stmt 0 view .LVU261
	call	__printf_chk@PLT
.LVL52:
	.loc 2 112 10 view .LVU262
.LBE218:
.LBE224:
	.loc 1 200 5 is_stmt 1 view .LVU263
	.loc 1 201 5 view .LVU264
	.loc 1 201 29 view .LVU265
	.loc 1 201 22 is_stmt 0 view .LVU266
	leaq	header_text(%rip), %rax
	movq	(%rax), %rcx
	.loc 1 201 29 view .LVU267
	cmpb	$0, (%rcx)
	je	.L34
	leaq	8(%rax), %rbp
	leaq	4+header_width(%rip), %rbx
	movl	$10, %edx
	leaq	.LC9(%rip), %r12
	jmp	.L35
.LVL53:
.L75:
	.loc 1 202 36 view .LVU268
	movl	(%rbx), %edx
	addq	$4, %rbx
.L35:
	.loc 1 202 9 is_stmt 1 view .LVU269
.LVL54:
.LBB225:
.LBI225:
	.loc 2 110 1 view .LVU270
.LBB226:
	.loc 2 112 3 view .LVU271
	.loc 2 112 10 is_stmt 0 view .LVU272
	xorl	%eax, %eax
	movq	%r12, %rsi
	movl	$1, %edi
.LBE226:
.LBE225:
	.loc 1 201 29 view .LVU273
	addq	$8, %rbp
.LBB228:
.LBB227:
	.loc 2 112 10 view .LVU274
	call	__printf_chk@PLT
.LVL55:
	.loc 2 112 10 view .LVU275
.LBE227:
.LBE228:
	.loc 1 203 9 is_stmt 1 view .LVU276
	.loc 1 201 29 view .LVU277
	.loc 1 201 22 is_stmt 0 view .LVU278
	movq	-8(%rbp), %rcx
	.loc 1 201 29 view .LVU279
	cmpb	$0, (%rcx)
	jne	.L75
.L34:
	.loc 1 205 5 is_stmt 1 view .LVU280
.LVL56:
.LBB229:
.LBI229:
	.loc 2 110 1 view .LVU281
.LBB230:
	.loc 2 112 3 view .LVU282
	.loc 2 112 10 is_stmt 0 view .LVU283
	movl	$10, %edi
.LBE230:
.LBE229:
	.loc 1 207 13 view .LVU284
	movq	$-1, %r15
.LBB232:
.LBB231:
	.loc 2 112 10 view .LVU285
	call	putchar@PLT
.LVL57:
	.loc 2 112 10 view .LVU286
.LBE231:
.LBE232:
	.loc 1 206 5 is_stmt 1 view .LVU287
	.loc 1 207 5 view .LVU288
	.loc 1 208 5 view .LVU289
.LBB233:
	.loc 1 208 9 view .LVU290
	.loc 1 208 35 view .LVU291
	.loc 1 208 13 is_stmt 0 view .LVU292
	movl	$24, 56(%rsp)
.LVL58:
.L61:
.LBB234:
	.loc 1 210 9 is_stmt 1 view .LVU293
.LBB235:
.LBB236:
	.loc 1 18 5 is_stmt 0 view .LVU294
	movq	8(%rsp), %rbx
.LBE236:
.LBE235:
	.loc 1 210 13 view .LVU295
	movzbl	56(%rsp), %ecx
.LBB243:
.LBB237:
	.loc 1 18 5 view .LVU296
	xorl	%esi, %esi
.LBE237:
.LBE243:
	.loc 1 210 13 view .LVU297
	movl	$1, %ebp
	.loc 1 211 9 view .LVU298
	movq	use_what(%rip), %r12
	leaq	ns_sorted(%rip), %r13
.LBB244:
.LBB238:
	.loc 1 18 5 view .LVU299
	movq	%rbx, %rdi
.LBE238:
.LBE244:
	.loc 1 210 13 view .LVU300
	sall	%cl, %ebp
.LVL59:
	.loc 1 211 9 is_stmt 1 view .LVU301
.LBB245:
.LBI235:
	.loc 1 16 46 view .LVU302
.LBB239:
	.loc 1 17 5 view .LVU303
	.loc 1 18 5 view .LVU304
	call	gettimeofday@PLT
.LVL60:
	.loc 1 19 5 view .LVU305
	.loc 1 19 40 is_stmt 0 view .LVU306
	pxor	%xmm0, %xmm0
	.loc 1 19 12 view .LVU307
	pxor	%xmm1, %xmm1
.LBE239:
.LBE245:
.LBB246:
.LBB247:
	.loc 2 112 10 view .LVU308
	movq	%r12, %rdx
.LBE247:
.LBE246:
.LBB251:
.LBB240:
	.loc 1 19 40 view .LVU309
	cvtsi2sdq	104(%rsp), %xmm0
.LBE240:
.LBE251:
.LBB252:
.LBB248:
	.loc 2 112 10 view .LVU310
	movl	%ebp, %ecx
	leaq	.LC10(%rip), %rsi
	movl	$1, %edi
.LBE248:
.LBE252:
.LBB253:
.LBB241:
	.loc 1 19 38 view .LVU311
	mulsd	.LC0(%rip), %xmm0
	.loc 1 19 12 view .LVU312
	cvtsi2sdq	96(%rsp), %xmm1
.LBE241:
.LBE253:
.LBB254:
.LBB249:
	.loc 2 112 10 view .LVU313
	movl	$1, %eax
.LBE249:
.LBE254:
.LBB255:
.LBB242:
	.loc 1 19 30 view .LVU314
	addsd	%xmm1, %xmm0
.LVL61:
	.loc 1 19 30 view .LVU315
.LBE242:
.LBE255:
.LBB256:
.LBI246:
	.loc 2 110 1 is_stmt 1 view .LVU316
.LBB250:
	.loc 2 112 3 view .LVU317
	.loc 2 112 10 is_stmt 0 view .LVU318
	call	__printf_chk@PLT
.LVL62:
	.loc 2 112 10 view .LVU319
.LBE250:
.LBE256:
	.loc 1 212 9 is_stmt 1 view .LVU320
.LBB257:
.LBI257:
	.loc 1 16 46 view .LVU321
.LBB258:
	.loc 1 17 5 view .LVU322
	.loc 1 18 5 view .LVU323
	movq	%rbx, %rdi
	xorl	%esi, %esi
	leaq	ns(%rip), %rbx
	call	gettimeofday@PLT
.LVL63:
	.loc 1 19 5 view .LVU324
	.loc 1 19 40 is_stmt 0 view .LVU325
	pxor	%xmm0, %xmm0
	.loc 1 19 12 view .LVU326
	pxor	%xmm1, %xmm1
	movq	%rbx, %r12
	.loc 1 19 40 view .LVU327
	cvtsi2sdq	104(%rsp), %xmm0
	.loc 1 19 38 view .LVU328
	mulsd	.LC0(%rip), %xmm0
	.loc 1 19 12 view .LVU329
	cvtsi2sdq	96(%rsp), %xmm1
	.loc 1 19 30 view .LVU330
	addsd	%xmm1, %xmm0
	movsd	%xmm0, 72(%rsp)
.LVL64:
	.loc 1 19 30 view .LVU331
.LBE258:
.LBE257:
	.loc 1 213 9 is_stmt 1 view .LVU332
.LBB259:
	.loc 1 213 13 view .LVU333
	.loc 1 213 26 view .LVU334
	.p2align 4,,10
	.p2align 3
.L36:
	.loc 1 215 13 discriminator 3 view .LVU335
	.loc 1 215 21 is_stmt 0 discriminator 3 view .LVU336
	movl	%ebp, %edi
	.loc 1 213 26 discriminator 3 view .LVU337
	addq	$8, %r12
.LVL65:
	.loc 1 213 26 discriminator 3 view .LVU338
	addq	$8, %r13
	.loc 1 215 21 discriminator 3 view .LVU339
	call	burn_cpu
.LVL66:
	.loc 1 215 19 discriminator 3 view .LVU340
	movq	%rax, -8(%r12)
	.loc 1 216 13 is_stmt 1 discriminator 3 view .LVU341
	.loc 1 216 26 is_stmt 0 discriminator 3 view .LVU342
	movq	%rax, -8(%r13)
	.loc 1 213 39 is_stmt 1 discriminator 3 view .LVU343
.LVL67:
	.loc 1 213 26 discriminator 3 view .LVU344
	cmpq	%r14, %r12
	jne	.L36
.LBE259:
	.loc 1 218 9 view .LVU345
.LBB260:
.LBI260:
	.loc 1 16 46 view .LVU346
.LBB261:
	.loc 1 17 5 view .LVU347
	.loc 1 18 5 view .LVU348
	movq	8(%rsp), %rdi
	xorl	%esi, %esi
	call	gettimeofday@PLT
.LVL68:
	.loc 1 19 5 view .LVU349
	.loc 1 19 40 is_stmt 0 view .LVU350
	pxor	%xmm0, %xmm0
	.loc 1 19 12 view .LVU351
	pxor	%xmm1, %xmm1
.LBE261:
.LBE260:
	.loc 1 219 9 view .LVU352
	leaq	comp(%rip), %rcx
.LBB265:
.LBB262:
	.loc 1 19 40 view .LVU353
	cvtsi2sdq	104(%rsp), %xmm0
.LBE262:
.LBE265:
	.loc 1 219 9 view .LVU354
	movl	$8, %edx
	movl	$200, %esi
.LBB266:
.LBB263:
	.loc 1 19 38 view .LVU355
	mulsd	.LC0(%rip), %xmm0
	.loc 1 19 12 view .LVU356
	cvtsi2sdq	96(%rsp), %xmm1
.LBE263:
.LBE266:
	.loc 1 219 9 view .LVU357
	leaq	ns_sorted(%rip), %rdi
.LBB267:
.LBB264:
	.loc 1 19 30 view .LVU358
	addsd	%xmm1, %xmm0
	movsd	%xmm0, 80(%rsp)
.LVL69:
	.loc 1 19 30 view .LVU359
.LBE264:
.LBE267:
	.loc 1 219 9 is_stmt 1 view .LVU360
	call	qsort@PLT
.LVL70:
	.loc 1 220 9 view .LVU361
	.loc 1 220 17 is_stmt 0 view .LVU362
	leaq	ns_sorted(%rip), %rax
	.loc 1 221 17 view .LVU363
	movq	8+ns_sorted(%rip), %r13
	.loc 1 220 17 view .LVU364
	movq	(%rax), %r12
.LVL71:
	.loc 1 221 9 is_stmt 1 view .LVU365
	.loc 1 221 70 view .LVU366
	cmpq	%r13, %r12
	jg	.L76
	.loc 1 222 9 view .LVU367
	.loc 1 222 17 is_stmt 0 view .LVU368
	movq	392+ns_sorted(%rip), %rax
	movq	%rax, 24(%rsp)
.LVL72:
	.loc 1 222 70 is_stmt 1 view .LVU369
	cmpq	%rax, %r13
	jg	.L77
	.loc 1 223 9 view .LVU370
	.loc 1 223 17 is_stmt 0 view .LVU371
	movq	792+ns_sorted(%rip), %rax
.LVL73:
	.loc 1 223 17 view .LVU372
	movq	%rax, 32(%rsp)
.LVL74:
	.loc 1 223 70 is_stmt 1 view .LVU373
	cmpq	%rax, 24(%rsp)
	jg	.L78
	.loc 1 224 9 view .LVU374
	.loc 1 224 17 is_stmt 0 view .LVU375
	movq	1192+ns_sorted(%rip), %rax
.LVL75:
	.loc 1 224 17 view .LVU376
	movq	%rax, 40(%rsp)
.LVL76:
	.loc 1 224 70 is_stmt 1 view .LVU377
	cmpq	%rax, 32(%rsp)
	jg	.L79
	.loc 1 225 9 view .LVU378
	.loc 1 225 17 is_stmt 0 view .LVU379
	movq	1576+ns_sorted(%rip), %rax
.LVL77:
	.loc 1 225 17 view .LVU380
	movq	%rax, 48(%rsp)
.LVL78:
	.loc 1 225 70 is_stmt 1 view .LVU381
	cmpq	%rax, 40(%rsp)
	jg	.L80
	.loc 1 226 9 view .LVU382
	.loc 1 226 17 is_stmt 0 view .LVU383
	movq	1592+ns_sorted(%rip), %rax
.LVL79:
	.loc 1 226 17 view .LVU384
	movq	%rax, 88(%rsp)
.LVL80:
	.loc 1 226 70 is_stmt 1 view .LVU385
	cmpq	%rax, 48(%rsp)
	jg	.L81
	.loc 1 227 9 view .LVU386
	.loc 1 227 66 is_stmt 0 view .LVU387
	cmpq	$-1, %r15
	je	.L64
	.loc 1 227 66 discriminator 1 view .LVU388
	movq	%r15, %rax
.LVL81:
	.loc 1 228 64 discriminator 1 view .LVU389
	pxor	%xmm0, %xmm0
	.loc 1 227 66 discriminator 1 view .LVU390
	shrq	$63, %rax
	addq	%r15, %rax
	sarq	%rax
	movq	%rax, %r15
.LVL82:
	.loc 1 228 41 discriminator 1 view .LVU391
	movq	%r12, %rax
	subq	%r15, %rax
	.loc 1 228 64 discriminator 1 view .LVU392
	cvtsi2sdq	%rax, %xmm0
	mulsd	.LC18(%rip), %xmm0
.L43:
.LVL83:
	.loc 1 228 9 is_stmt 1 discriminator 4 view .LVU393
	.loc 1 228 72 is_stmt 0 discriminator 4 view .LVU394
	pxor	%xmm1, %xmm1
	.loc 1 230 11 discriminator 4 view .LVU395
	cmpl	$24, 56(%rsp)
	.loc 1 228 72 discriminator 4 view .LVU396
	cvtsi2sdq	%r15, %xmm1
	.loc 1 228 16 discriminator 4 view .LVU397
	divsd	%xmm1, %xmm0
	movsd	%xmm0, 64(%rsp)
.LVL84:
	.loc 1 230 9 is_stmt 1 discriminator 4 view .LVU398
	.loc 1 230 11 is_stmt 0 discriminator 4 view .LVU399
	je	.L82
	.loc 1 231 32 is_stmt 1 view .LVU400
.LVL85:
.LBB268:
.LBI268:
	.loc 2 110 1 view .LVU401
.LBB269:
	.loc 2 112 3 view .LVU402
	.loc 2 112 10 is_stmt 0 view .LVU403
	leaq	.LC21(%rip), %rax
	movq	%r15, %rdx
	movl	$1, %edi
	movq	%rax, 16(%rsp)
	movq	%rax, %rsi
	xorl	%eax, %eax
	call	__printf_chk@PLT
.LVL86:
.L45:
	.loc 2 112 10 view .LVU404
.LBE269:
.LBE268:
	.loc 1 232 9 is_stmt 1 view .LVU405
	.loc 1 232 18 is_stmt 0 view .LVU406
	testq	%r12, %r12
	setg	%dl
	.loc 1 232 47 view .LVU407
	testq	%r15, %r15
	setg	%al
	.loc 1 232 11 view .LVU408
	andb	%al, %dl
	movb	%dl, 63(%rsp)
	je	.L46
	.loc 1 232 55 is_stmt 1 view .LVU409
.LVL87:
.LBB270:
.LBI270:
	.loc 2 110 1 view .LVU410
.LBB271:
	.loc 2 112 3 view .LVU411
	.loc 2 112 10 is_stmt 0 view .LVU412
	movsd	64(%rsp), %xmm0
	movl	$1, %edi
	movl	$1, %eax
	leaq	.LC22(%rip), %rsi
	call	__printf_chk@PLT
.LVL88:
	.loc 2 112 10 view .LVU413
.LBE271:
.LBE270:
	.loc 1 234 9 is_stmt 1 view .LVU414
.LBB272:
.LBI272:
	.loc 2 110 1 view .LVU415
.LBB273:
	.loc 2 112 3 view .LVU416
	.loc 2 112 10 is_stmt 0 view .LVU417
	movq	%r12, %rdx
	movl	$1, %edi
	xorl	%eax, %eax
	leaq	.LC23(%rip), %rsi
	call	__printf_chk@PLT
.LVL89:
	.loc 2 112 10 view .LVU418
.LBE273:
.LBE272:
	.loc 1 236 9 is_stmt 1 view .LVU419
.L47:
	.loc 1 237 53 is_stmt 0 discriminator 1 view .LVU420
	movq	24(%rsp), %rax
	.loc 1 237 61 discriminator 1 view .LVU421
	pxor	%xmm5, %xmm5
	.loc 1 238 61 discriminator 1 view .LVU422
	pxor	%xmm4, %xmm4
	.loc 1 236 53 discriminator 1 view .LVU423
	subq	%r12, %r13
.LVL90:
	.loc 1 239 61 discriminator 1 view .LVU424
	pxor	%xmm3, %xmm3
	.loc 1 240 61 discriminator 1 view .LVU425
	pxor	%xmm2, %xmm2
	.loc 1 236 61 discriminator 1 view .LVU426
	pxor	%xmm6, %xmm6
	movsd	.LC18(%rip), %xmm7
	.loc 1 241 61 discriminator 1 view .LVU427
	pxor	%xmm1, %xmm1
	.loc 1 236 61 discriminator 1 view .LVU428
	cvtsi2sdq	%r13, %xmm6
	.loc 1 236 69 discriminator 1 view .LVU429
	pxor	%xmm0, %xmm0
	.loc 1 237 53 discriminator 1 view .LVU430
	subq	%r12, %rax
	.loc 1 237 61 discriminator 1 view .LVU431
	cvtsi2sdq	%rax, %xmm5
	.loc 1 238 53 discriminator 1 view .LVU432
	movq	32(%rsp), %rax
	.loc 1 236 69 discriminator 1 view .LVU433
	cvtsi2sdq	%r12, %xmm0
	.loc 1 238 53 discriminator 1 view .LVU434
	subq	%r12, %rax
	.loc 1 238 61 discriminator 1 view .LVU435
	cvtsi2sdq	%rax, %xmm4
	.loc 1 239 53 discriminator 1 view .LVU436
	movq	40(%rsp), %rax
	.loc 1 236 61 discriminator 1 view .LVU437
	mulsd	%xmm7, %xmm6
	.loc 1 237 61 discriminator 1 view .LVU438
	mulsd	%xmm7, %xmm5
	.loc 1 239 53 discriminator 1 view .LVU439
	subq	%r12, %rax
	.loc 1 239 61 discriminator 1 view .LVU440
	cvtsi2sdq	%rax, %xmm3
	.loc 1 240 53 discriminator 1 view .LVU441
	movq	48(%rsp), %rax
	.loc 1 238 61 discriminator 1 view .LVU442
	mulsd	%xmm7, %xmm4
	.loc 1 236 45 discriminator 1 view .LVU443
	divsd	%xmm0, %xmm6
.LVL91:
	.loc 1 237 9 is_stmt 1 discriminator 1 view .LVU444
	.loc 1 240 53 is_stmt 0 discriminator 1 view .LVU445
	subq	%r12, %rax
	.loc 1 240 61 discriminator 1 view .LVU446
	cvtsi2sdq	%rax, %xmm2
	.loc 1 241 53 discriminator 1 view .LVU447
	movq	88(%rsp), %rax
	.loc 1 239 61 discriminator 1 view .LVU448
	mulsd	%xmm7, %xmm3
	.loc 1 241 53 discriminator 1 view .LVU449
	subq	%r12, %rax
	.loc 1 241 61 discriminator 1 view .LVU450
	cvtsi2sdq	%rax, %xmm1
	.loc 1 240 61 discriminator 1 view .LVU451
	mulsd	%xmm7, %xmm2
	.loc 1 241 61 discriminator 1 view .LVU452
	mulsd	%xmm7, %xmm1
	.loc 1 237 45 discriminator 1 view .LVU453
	divsd	%xmm0, %xmm5
.LVL92:
	.loc 1 238 9 is_stmt 1 discriminator 1 view .LVU454
	.loc 1 238 45 is_stmt 0 discriminator 1 view .LVU455
	divsd	%xmm0, %xmm4
.LVL93:
	.loc 1 239 9 is_stmt 1 discriminator 1 view .LVU456
	.loc 1 239 45 is_stmt 0 discriminator 1 view .LVU457
	divsd	%xmm0, %xmm3
.LVL94:
	.loc 1 240 9 is_stmt 1 discriminator 1 view .LVU458
	.loc 1 240 45 is_stmt 0 discriminator 1 view .LVU459
	divsd	%xmm0, %xmm2
.LVL95:
	.loc 1 241 9 is_stmt 1 discriminator 1 view .LVU460
	.loc 1 241 45 is_stmt 0 discriminator 1 view .LVU461
	divsd	%xmm0, %xmm1
.LVL96:
.L48:
.LBB275:
.LBB276:
	.loc 2 112 10 discriminator 4 view .LVU462
	leaq	.LC25(%rip), %r13
	movapd	%xmm6, %xmm0
	movl	$1, %edi
	movl	$1, %eax
	movq	%r13, %rsi
	movsd	%xmm1, 24(%rsp)
.LVL97:
	.loc 2 112 10 discriminator 4 view .LVU463
.LBE276:
.LBE275:
	.loc 1 243 9 is_stmt 1 discriminator 4 view .LVU464
.LBB278:
.LBI275:
	.loc 2 110 1 discriminator 4 view .LVU465
.LBB277:
	.loc 2 112 3 discriminator 4 view .LVU466
	movsd	%xmm2, 88(%rsp)
.LVL98:
	.loc 2 112 3 is_stmt 0 discriminator 4 view .LVU467
	movsd	%xmm3, 48(%rsp)
.LVL99:
	.loc 2 112 3 discriminator 4 view .LVU468
	movsd	%xmm4, 40(%rsp)
.LVL100:
	.loc 2 112 3 discriminator 4 view .LVU469
	movsd	%xmm5, 32(%rsp)
.LVL101:
	.loc 2 112 10 discriminator 4 view .LVU470
	call	__printf_chk@PLT
.LVL102:
	.loc 2 112 10 discriminator 4 view .LVU471
.LBE277:
.LBE278:
	.loc 1 244 9 is_stmt 1 discriminator 4 view .LVU472
.LBB279:
.LBI279:
	.loc 2 110 1 discriminator 4 view .LVU473
.LBB280:
	.loc 2 112 3 discriminator 4 view .LVU474
	.loc 2 112 10 is_stmt 0 discriminator 4 view .LVU475
	movsd	32(%rsp), %xmm5
	movq	%r13, %rsi
	movl	$1, %edi
	movl	$1, %eax
	movapd	%xmm5, %xmm0
	call	__printf_chk@PLT
.LVL103:
	.loc 2 112 10 discriminator 4 view .LVU476
.LBE280:
.LBE279:
	.loc 1 245 9 is_stmt 1 discriminator 4 view .LVU477
.LBB281:
.LBI281:
	.loc 2 110 1 discriminator 4 view .LVU478
.LBB282:
	.loc 2 112 3 discriminator 4 view .LVU479
	.loc 2 112 10 is_stmt 0 discriminator 4 view .LVU480
	movsd	40(%rsp), %xmm4
	movq	%r13, %rsi
	movl	$1, %edi
	movl	$1, %eax
	movapd	%xmm4, %xmm0
	call	__printf_chk@PLT
.LVL104:
	.loc 2 112 10 discriminator 4 view .LVU481
.LBE282:
.LBE281:
	.loc 1 246 9 is_stmt 1 discriminator 4 view .LVU482
.LBB283:
.LBI283:
	.loc 2 110 1 discriminator 4 view .LVU483
.LBB284:
	.loc 2 112 3 discriminator 4 view .LVU484
	.loc 2 112 10 is_stmt 0 discriminator 4 view .LVU485
	movsd	48(%rsp), %xmm3
	movq	%r13, %rsi
	movl	$1, %edi
	movl	$1, %eax
	movapd	%xmm3, %xmm0
	call	__printf_chk@PLT
.LVL105:
	.loc 2 112 10 discriminator 4 view .LVU486
.LBE284:
.LBE283:
	.loc 1 247 9 is_stmt 1 discriminator 4 view .LVU487
.LBB285:
.LBI285:
	.loc 2 110 1 discriminator 4 view .LVU488
.LBB286:
	.loc 2 112 3 discriminator 4 view .LVU489
	.loc 2 112 10 is_stmt 0 discriminator 4 view .LVU490
	movsd	88(%rsp), %xmm2
	movq	%r13, %rsi
	movl	$1, %edi
	movl	$1, %eax
	movapd	%xmm2, %xmm0
	call	__printf_chk@PLT
.LVL106:
	.loc 2 112 10 discriminator 4 view .LVU491
.LBE286:
.LBE285:
	.loc 1 248 9 is_stmt 1 discriminator 4 view .LVU492
.LBB287:
.LBI287:
	.loc 2 110 1 discriminator 4 view .LVU493
.LBB288:
	.loc 2 112 3 discriminator 4 view .LVU494
	.loc 2 112 10 is_stmt 0 discriminator 4 view .LVU495
	movsd	24(%rsp), %xmm1
	movl	$1, %edi
	leaq	.LC26(%rip), %rsi
	movl	$1, %eax
	movapd	%xmm1, %xmm0
	call	__printf_chk@PLT
.LVL107:
	.loc 2 112 10 discriminator 4 view .LVU496
.LBE288:
.LBE287:
	.loc 1 250 9 is_stmt 1 discriminator 4 view .LVU497
.LBB289:
.LBB290:
	.loc 1 18 5 is_stmt 0 discriminator 4 view .LVU498
	movq	8(%rsp), %rdi
	xorl	%esi, %esi
.LBE290:
.LBE289:
	.loc 1 250 9 discriminator 4 view .LVU499
	movq	use_what(%rip), %r13
.LBB295:
.LBI289:
	.loc 1 16 46 is_stmt 1 discriminator 4 view .LVU500
.LBB291:
	.loc 1 17 5 discriminator 4 view .LVU501
	.loc 1 18 5 discriminator 4 view .LVU502
	call	gettimeofday@PLT
.LVL108:
	.loc 1 19 5 discriminator 4 view .LVU503
	.loc 1 19 40 is_stmt 0 discriminator 4 view .LVU504
	pxor	%xmm0, %xmm0
	.loc 1 19 12 discriminator 4 view .LVU505
	pxor	%xmm1, %xmm1
.LBE291:
.LBE295:
.LBB296:
.LBB297:
	.loc 2 105 10 discriminator 4 view .LVU506
	movl	%ebp, %r8d
.LBE297:
.LBE296:
.LBB301:
.LBB292:
	.loc 1 19 40 discriminator 4 view .LVU507
	cvtsi2sdq	104(%rsp), %xmm0
.LBE292:
.LBE301:
.LBB302:
.LBB298:
	.loc 2 105 10 discriminator 4 view .LVU508
	movq	%r13, %rcx
	movl	$1, %esi
	movl	$1, %eax
.LBE298:
.LBE302:
.LBB303:
.LBB293:
	.loc 1 19 38 discriminator 4 view .LVU509
	mulsd	.LC0(%rip), %xmm0
	.loc 1 19 12 discriminator 4 view .LVU510
	cvtsi2sdq	96(%rsp), %xmm1
.LBE293:
.LBE303:
.LBB304:
.LBB299:
	.loc 2 105 10 discriminator 4 view .LVU511
	movq	stderr(%rip), %rdi
	leaq	.LC10(%rip), %rdx
.LBE299:
.LBE304:
.LBB305:
.LBB294:
	.loc 1 19 30 discriminator 4 view .LVU512
	addsd	%xmm1, %xmm0
.LVL109:
	.loc 1 19 30 discriminator 4 view .LVU513
.LBE294:
.LBE305:
.LBB306:
.LBI296:
	.loc 2 103 1 is_stmt 1 discriminator 4 view .LVU514
.LBB300:
	.loc 2 105 3 discriminator 4 view .LVU515
	.loc 2 105 10 is_stmt 0 discriminator 4 view .LVU516
	call	__fprintf_chk@PLT
.LVL110:
	.loc 2 105 10 discriminator 4 view .LVU517
.LBE300:
.LBE306:
	.loc 1 252 9 is_stmt 1 discriminator 4 view .LVU518
.LBB307:
.LBI307:
	.loc 2 103 1 discriminator 4 view .LVU519
.LBB308:
	.loc 2 105 3 discriminator 4 view .LVU520
	.loc 2 105 10 is_stmt 0 discriminator 4 view .LVU521
	movq	16(%rsp), %rdx
	xorl	%eax, %eax
	movq	%r15, %rcx
	movq	stderr(%rip), %rdi
	movl	$1, %esi
	call	__fprintf_chk@PLT
.LVL111:
	.loc 2 105 10 discriminator 4 view .LVU522
.LBE308:
.LBE307:
	.loc 1 253 9 is_stmt 1 discriminator 4 view .LVU523
	.loc 1 253 11 is_stmt 0 discriminator 4 view .LVU524
	cmpb	$0, 63(%rsp)
	je	.L49
	.loc 1 253 55 is_stmt 1 discriminator 1 view .LVU525
.LVL112:
.LBB309:
.LBI309:
	.loc 2 103 1 discriminator 1 view .LVU526
.LBB310:
	.loc 2 105 3 discriminator 1 view .LVU527
	.loc 2 105 10 is_stmt 0 discriminator 1 view .LVU528
	movsd	64(%rsp), %xmm0
	movl	$1, %esi
	movl	$1, %eax
	movq	stderr(%rip), %rdi
	leaq	.LC27(%rip), %rdx
	call	__fprintf_chk@PLT
.LVL113:
.L50:
	.loc 2 105 10 discriminator 1 view .LVU529
.LBE310:
.LBE309:
	.loc 1 255 9 is_stmt 1 view .LVU530
.LBB311:
.LBI311:
	.loc 2 103 1 view .LVU531
.LBB312:
	.loc 2 105 3 view .LVU532
	.loc 2 105 10 is_stmt 0 view .LVU533
	movq	16(%rsp), %rdx
	movq	%r12, %rcx
	movl	$1, %esi
	xorl	%eax, %eax
	movq	stderr(%rip), %rdi
.LBE312:
.LBE311:
.LBB314:
.LBB315:
.LBB316:
	leaq	.LC35(%rip), %r13
.LBE316:
.LBE315:
.LBB318:
.LBB319:
	leaq	.LC33(%rip), %rbp
.LVL114:
	.loc 2 105 10 view .LVU534
.LBE319:
.LBE318:
.LBE314:
.LBB355:
.LBB313:
	call	__fprintf_chk@PLT
.LVL115:
	.loc 2 105 10 view .LVU535
.LBE313:
.LBE355:
	.loc 1 257 9 is_stmt 1 view .LVU536
.LBB356:
	.loc 1 257 13 view .LVU537
	.loc 1 257 26 view .LVU538
	jmp	.L58
.LVL116:
	.p2align 4,,10
	.p2align 3
.L51:
	.loc 1 259 18 view .LVU539
	.loc 1 259 20 is_stmt 0 view .LVU540
	cmpq	$9899999, %rcx
	ja	.L83
	.loc 1 260 18 is_stmt 1 view .LVU541
	.loc 1 260 20 is_stmt 0 view .LVU542
	cmpq	$999999, %rcx
	ja	.L84
	.loc 1 261 18 is_stmt 1 view .LVU543
	.loc 1 261 20 is_stmt 0 view .LVU544
	cmpq	$9999, %rcx
	ja	.L85
	.loc 1 262 18 is_stmt 1 view .LVU545
	.loc 1 262 20 is_stmt 0 view .LVU546
	cmpq	$9899, %rcx
	ja	.L86
	.loc 1 263 18 is_stmt 1 view .LVU547
	.loc 1 263 20 is_stmt 0 view .LVU548
	cmpq	$999, %rcx
	jbe	.L57
	.loc 1 263 42 is_stmt 1 discriminator 1 view .LVU549
.LVL117:
.LBB323:
.LBI318:
	.loc 2 103 1 discriminator 1 view .LVU550
.LBB320:
	.loc 2 105 3 discriminator 1 view .LVU551
.LBE320:
.LBE323:
	.loc 1 263 42 is_stmt 0 discriminator 1 view .LVU552
	pxor	%xmm0, %xmm0
.LBB324:
.LBB321:
	.loc 2 105 10 discriminator 1 view .LVU553
	movq	%rbp, %rdx
	movl	$1, %esi
.LVL118:
	.loc 2 105 10 discriminator 1 view .LVU554
	movl	$1, %eax
.LBE321:
.LBE324:
	.loc 1 263 42 discriminator 1 view .LVU555
	cvtsi2sdq	%rcx, %xmm0
	divsd	.LC34(%rip), %xmm0
.LBB325:
.LBB322:
	.loc 2 105 10 discriminator 1 view .LVU556
	call	__fprintf_chk@PLT
.LVL119:
	.p2align 4,,10
	.p2align 3
.L52:
	.loc 2 105 10 discriminator 1 view .LVU557
.LBE322:
.LBE325:
	.loc 1 257 39 is_stmt 1 discriminator 2 view .LVU558
	.loc 1 257 26 discriminator 2 view .LVU559
	addq	$8, %rbx
.LVL120:
	.loc 1 257 26 is_stmt 0 discriminator 2 view .LVU560
	cmpq	%r14, %rbx
	je	.L87
.LVL121:
.L58:
	.loc 1 258 13 is_stmt 1 view .LVU561
	.loc 1 258 23 is_stmt 0 view .LVU562
	movq	(%rbx), %rcx
	.loc 1 258 42 view .LVU563
	movq	stderr(%rip), %rdi
	.loc 1 258 20 view .LVU564
	cmpq	$9999999, %rcx
	jbe	.L51
	.loc 1 258 42 is_stmt 1 discriminator 1 view .LVU565
.LVL122:
.LBB326:
.LBI326:
	.loc 2 103 1 discriminator 1 view .LVU566
.LBB327:
	.loc 2 105 3 discriminator 1 view .LVU567
.LBE327:
.LBE326:
	.loc 1 258 42 is_stmt 0 discriminator 1 view .LVU568
	movq	%rcx, %rax
.LBB331:
.LBB328:
	.loc 2 105 10 discriminator 1 view .LVU569
	movl	$1, %esi
.LVL123:
	.loc 2 105 10 discriminator 1 view .LVU570
.LBE328:
.LBE331:
	.loc 1 257 26 discriminator 1 view .LVU571
	addq	$8, %rbx
.LVL124:
	.loc 1 258 42 discriminator 1 view .LVU572
	movabsq	$4835703278458516699, %rdx
	mulq	%rdx
.LBB332:
.LBB329:
	.loc 2 105 10 discriminator 1 view .LVU573
	xorl	%eax, %eax
.LBE329:
.LBE332:
	.loc 1 258 42 discriminator 1 view .LVU574
	shrq	$18, %rdx
	movq	%rdx, %rcx
.LBB333:
.LBB330:
	.loc 2 105 10 discriminator 1 view .LVU575
	leaq	.LC28(%rip), %rdx
	call	__fprintf_chk@PLT
.LVL125:
	.loc 2 105 10 discriminator 1 view .LVU576
.LBE330:
.LBE333:
	.loc 1 257 39 is_stmt 1 discriminator 1 view .LVU577
	.loc 1 257 26 discriminator 1 view .LVU578
	cmpq	%r14, %rbx
	jne	.L58
.L87:
.LBE356:
	.loc 1 266 9 view .LVU579
.LVL126:
.LBB357:
.LBI357:
	.loc 2 103 1 view .LVU580
.LBB358:
	.loc 2 105 3 view .LVU581
	.loc 2 105 10 is_stmt 0 view .LVU582
	movq	stderr(%rip), %rsi
	movl	$10, %edi
	call	fputc@PLT
.LVL127:
	.loc 2 105 10 view .LVU583
.LBE358:
.LBE357:
	.loc 1 268 9 is_stmt 1 view .LVU584
	.loc 1 268 16 is_stmt 0 view .LVU585
	movsd	80(%rsp), %xmm1
	subsd	72(%rsp), %xmm1
.LVL128:
	.loc 1 269 9 is_stmt 1 view .LVU586
	.loc 1 270 9 view .LVU587
	.loc 1 271 9 view .LVU588
	.loc 1 271 11 is_stmt 0 view .LVU589
	testq	%r12, %r12
	jne	.L59
.LBB359:
.LBB360:
	.loc 2 112 10 view .LVU590
	leaq	.LC19(%rip), %rdx
	leaq	.LC36(%rip), %rsi
	movl	$1, %edi
.LVL129:
	.loc 2 112 10 view .LVU591
	xorl	%eax, %eax
	movsd	%xmm1, 16(%rsp)
.LBE360:
.LBE359:
	.loc 1 271 25 is_stmt 1 view .LVU592
.LVL130:
.LBB362:
.LBI359:
	.loc 2 110 1 view .LVU593
.LBB361:
	.loc 2 112 3 view .LVU594
	.loc 2 112 10 is_stmt 0 view .LVU595
	call	__printf_chk@PLT
.LVL131:
	.loc 2 112 10 view .LVU596
	movsd	16(%rsp), %xmm1
.LVL132:
.L60:
	.loc 2 112 10 view .LVU597
.LBE361:
.LBE362:
	.loc 1 273 9 is_stmt 1 discriminator 2 view .LVU598
.LBB363:
.LBI363:
	.loc 2 110 1 discriminator 2 view .LVU599
.LBB364:
	.loc 2 112 3 discriminator 2 view .LVU600
	.loc 2 112 10 is_stmt 0 discriminator 2 view .LVU601
	movapd	%xmm1, %xmm0
	movl	$1, %edi
.LVL133:
	.loc 2 112 10 discriminator 2 view .LVU602
	movl	$1, %eax
	leaq	.LC38(%rip), %rsi
	call	__printf_chk@PLT
.LVL134:
	.loc 2 112 10 discriminator 2 view .LVU603
.LBE364:
.LBE363:
	.loc 1 274 9 is_stmt 1 discriminator 2 view .LVU604
.LBB365:
.LBI365:
	.loc 2 110 1 discriminator 2 view .LVU605
.LBB366:
	.loc 2 112 3 discriminator 2 view .LVU606
	.loc 2 112 10 is_stmt 0 discriminator 2 view .LVU607
	leaq	.LC39(%rip), %rdi
	call	puts@PLT
.LVL135:
	.loc 2 112 10 discriminator 2 view .LVU608
.LBE366:
.LBE365:
.LBE234:
	.loc 1 208 46 is_stmt 1 discriminator 2 view .LVU609
	subl	$1, 56(%rsp)
.LVL136:
	.loc 1 208 46 is_stmt 0 discriminator 2 view .LVU610
	movl	56(%rsp), %eax
.LVL137:
	.loc 1 208 35 is_stmt 1 discriminator 2 view .LVU611
	cmpl	$-1, %eax
	jne	.L61
.LBE233:
	.loc 1 276 5 view .LVU612
	.loc 1 276 16 is_stmt 0 view .LVU613
	movq	iterations(%rip), %rax
.LVL138:
	.loc 1 277 15 view .LVU614
	addq	$1, iteration(%rip)
	.loc 1 276 16 view .LVU615
	subq	$1, %rax
	movq	%rax, iterations(%rip)
	.loc 1 277 5 is_stmt 1 view .LVU616
	.loc 1 278 5 view .LVU617
	.loc 1 278 7 is_stmt 0 view .LVU618
	testq	%rax, %rax
	jne	.L33
	.loc 1 281 5 is_stmt 1 view .LVU619
.LBB387:
.LBB388:
	.loc 1 18 5 is_stmt 0 view .LVU620
	movq	8(%rsp), %rdi
	xorl	%esi, %esi
.LBE388:
.LBE387:
	.loc 1 281 5 view .LVU621
	movq	use_what(%rip), %r12
.LVL139:
.LBB393:
.LBI387:
	.loc 1 16 46 is_stmt 1 view .LVU622
.LBB389:
	.loc 1 17 5 view .LVU623
	.loc 1 18 5 view .LVU624
	call	gettimeofday@PLT
.LVL140:
	.loc 1 19 5 view .LVU625
	.loc 1 19 40 is_stmt 0 view .LVU626
	pxor	%xmm0, %xmm0
	.loc 1 19 12 view .LVU627
	pxor	%xmm1, %xmm1
.LBE389:
.LBE393:
.LBB394:
.LBB395:
	.loc 2 112 10 view .LVU628
	movq	%r12, %rdx
.LBE395:
.LBE394:
.LBB399:
.LBB390:
	.loc 1 19 40 view .LVU629
	cvtsi2sdq	104(%rsp), %xmm0
.LBE390:
.LBE399:
.LBB400:
.LBB396:
	.loc 2 112 10 view .LVU630
	movl	$1, %edi
	.loc 2 112 10 view .LVU631
	movl	$1, %eax
.LBE396:
.LBE400:
.LBB401:
.LBB391:
	.loc 1 19 38 view .LVU632
	mulsd	.LC0(%rip), %xmm0
	.loc 1 19 12 view .LVU633
	cvtsi2sdq	96(%rsp), %xmm1
.LBE391:
.LBE401:
.LBB402:
.LBB397:
	.loc 2 112 10 view .LVU634
	leaq	.LC40(%rip), %rsi
.LBE397:
.LBE402:
.LBB403:
.LBB392:
	.loc 1 19 30 view .LVU635
	addsd	%xmm1, %xmm0
.LVL141:
	.loc 1 19 30 view .LVU636
.LBE392:
.LBE403:
.LBB404:
.LBI394:
	.loc 2 110 1 is_stmt 1 view .LVU637
.LBB398:
	.loc 2 112 3 view .LVU638
	.loc 2 112 10 is_stmt 0 view .LVU639
	call	__printf_chk@PLT
.LVL142:
	.loc 2 112 10 view .LVU640
.LBE398:
.LBE404:
	.loc 1 282 1 view .LVU641
	movq	120(%rsp), %rax
	subq	%fs:40, %rax
	jne	.L88
	addq	$136, %rsp
	.cfi_remember_state
	.cfi_def_cfa_offset 56
	xorl	%eax, %eax
	popq	%rbx
	.cfi_def_cfa_offset 48
	popq	%rbp
	.cfi_def_cfa_offset 40
	popq	%r12
	.cfi_def_cfa_offset 32
	popq	%r13
	.cfi_def_cfa_offset 24
	popq	%r14
	.cfi_def_cfa_offset 16
	popq	%r15
	.cfi_def_cfa_offset 8
.LVL143:
	.loc 1 282 1 view .LVU642
	ret
.LVL144:
	.p2align 4,,10
	.p2align 3
.L83:
	.cfi_restore_state
.LBB405:
.LBB385:
.LBB367:
	.loc 1 259 42 is_stmt 1 discriminator 1 view .LVU643
.LBB334:
.LBI334:
	.loc 2 103 1 discriminator 1 view .LVU644
.LBB335:
	.loc 2 105 3 discriminator 1 view .LVU645
	.loc 2 105 10 is_stmt 0 discriminator 1 view .LVU646
	movsd	.LC29(%rip), %xmm0
	movl	$1, %esi
.LVL145:
	.loc 2 105 10 discriminator 1 view .LVU647
	movl	$1, %eax
	leaq	.LC30(%rip), %rdx
	call	__fprintf_chk@PLT
.LVL146:
	.loc 2 105 10 discriminator 1 view .LVU648
	jmp	.L52
.LVL147:
	.p2align 4,,10
	.p2align 3
.L84:
	.loc 2 105 10 discriminator 1 view .LVU649
.LBE335:
.LBE334:
	.loc 1 260 42 is_stmt 1 discriminator 1 view .LVU650
.LBB336:
.LBI336:
	.loc 2 103 1 discriminator 1 view .LVU651
.LBB337:
	.loc 2 105 3 discriminator 1 view .LVU652
.LBE337:
.LBE336:
	.loc 1 260 42 is_stmt 0 discriminator 1 view .LVU653
	pxor	%xmm0, %xmm0
.LBB341:
.LBB338:
	.loc 2 105 10 discriminator 1 view .LVU654
	movl	$1, %esi
.LVL148:
	.loc 2 105 10 discriminator 1 view .LVU655
	movl	$1, %eax
.LBE338:
.LBE341:
	.loc 1 260 42 discriminator 1 view .LVU656
	cvtsi2sdq	%rcx, %xmm0
.LBB342:
.LBB339:
	.loc 2 105 10 discriminator 1 view .LVU657
	leaq	.LC30(%rip), %rdx
.LBE339:
.LBE342:
	.loc 1 260 42 discriminator 1 view .LVU658
	divsd	.LC31(%rip), %xmm0
.LBB343:
.LBB340:
	.loc 2 105 10 discriminator 1 view .LVU659
	call	__fprintf_chk@PLT
.LVL149:
	.loc 2 105 10 discriminator 1 view .LVU660
	jmp	.L52
.LVL150:
	.p2align 4,,10
	.p2align 3
.L85:
	.loc 2 105 10 discriminator 1 view .LVU661
.LBE340:
.LBE343:
	.loc 1 261 42 is_stmt 1 discriminator 1 view .LVU662
.LBB344:
.LBI344:
	.loc 2 103 1 discriminator 1 view .LVU663
.LBB345:
	.loc 2 105 3 discriminator 1 view .LVU664
.LBE345:
.LBE344:
	.loc 1 261 42 is_stmt 0 discriminator 1 view .LVU665
	shrq	$3, %rcx
.LBB349:
.LBB346:
	.loc 2 105 10 discriminator 1 view .LVU666
	movl	$1, %esi
.LVL151:
	.loc 2 105 10 discriminator 1 view .LVU667
.LBE346:
.LBE349:
	.loc 1 261 42 discriminator 1 view .LVU668
	movabsq	$2361183241434822607, %rdx
	movq	%rcx, %rax
	mulq	%rdx
.LBB350:
.LBB347:
	.loc 2 105 10 discriminator 1 view .LVU669
	xorl	%eax, %eax
.LBE347:
.LBE350:
	.loc 1 261 42 discriminator 1 view .LVU670
	shrq	$4, %rdx
	movq	%rdx, %rcx
.LBB351:
.LBB348:
	.loc 2 105 10 discriminator 1 view .LVU671
	leaq	.LC32(%rip), %rdx
	call	__fprintf_chk@PLT
.LVL152:
	.loc 2 105 10 discriminator 1 view .LVU672
	jmp	.L52
.LVL153:
	.p2align 4,,10
	.p2align 3
.L57:
	.loc 2 105 10 discriminator 1 view .LVU673
.LBE348:
.LBE351:
	.loc 1 264 42 is_stmt 1 view .LVU674
.LBB352:
.LBI315:
	.loc 2 103 1 view .LVU675
.LBB317:
	.loc 2 105 3 view .LVU676
	.loc 2 105 10 is_stmt 0 view .LVU677
	movq	%r13, %rdx
	movl	$1, %esi
.LVL154:
	.loc 2 105 10 view .LVU678
	xorl	%eax, %eax
	call	__fprintf_chk@PLT
.LVL155:
	.loc 2 105 10 view .LVU679
	jmp	.L52
.LVL156:
	.p2align 4,,10
	.p2align 3
.L86:
	.loc 2 105 10 view .LVU680
.LBE317:
.LBE352:
	.loc 1 262 42 is_stmt 1 discriminator 1 view .LVU681
.LBB353:
.LBI353:
	.loc 2 103 1 discriminator 1 view .LVU682
.LBB354:
	.loc 2 105 3 discriminator 1 view .LVU683
	.loc 2 105 10 is_stmt 0 discriminator 1 view .LVU684
	movq	.LC29(%rip), %rax
	movq	%rbp, %rdx
	movl	$1, %esi
.LVL157:
	.loc 2 105 10 discriminator 1 view .LVU685
	movq	%rax, %xmm0
	movl	$1, %eax
	call	__fprintf_chk@PLT
.LVL158:
	.loc 2 105 10 discriminator 1 view .LVU686
	jmp	.L52
.LVL159:
.L59:
	.loc 2 105 10 discriminator 1 view .LVU687
.LBE354:
.LBE353:
.LBE367:
	.loc 1 269 44 view .LVU688
	leaq	(%r12,%r12,4), %rax
	.loc 1 270 59 view .LVU689
	movapd	%xmm1, %xmm0
	.loc 1 269 55 view .LVU690
	pxor	%xmm2, %xmm2
.LBB368:
.LBB369:
	.loc 2 112 10 view .LVU691
	movl	$1, %edi
.LVL160:
	.loc 2 112 10 view .LVU692
.LBE369:
.LBE368:
	.loc 1 269 44 view .LVU693
	leaq	(%rax,%rax,4), %rax
.LBB374:
.LBB370:
	.loc 2 112 10 view .LVU694
	leaq	.LC37(%rip), %rsi
.LBE370:
.LBE374:
	.loc 1 270 59 view .LVU695
	movsd	%xmm1, 16(%rsp)
	.loc 1 269 44 view .LVU696
	salq	$3, %rax
	.loc 1 269 55 view .LVU697
	cvtsi2sdq	%rax, %xmm2
	.loc 1 269 16 view .LVU698
	divsd	.LC1(%rip), %xmm2
	.loc 1 272 25 is_stmt 1 view .LVU699
.LVL161:
.LBB375:
.LBI368:
	.loc 2 110 1 view .LVU700
.LBB371:
	.loc 2 112 3 view .LVU701
.LBE371:
.LBE375:
	.loc 1 270 59 is_stmt 0 view .LVU702
	subsd	%xmm2, %xmm0
	.loc 1 270 82 view .LVU703
	mulsd	.LC18(%rip), %xmm0
.LBB376:
.LBB372:
	.loc 2 112 10 view .LVU704
	movl	$1, %eax
.LBE372:
.LBE376:
	.loc 1 270 16 view .LVU705
	divsd	%xmm2, %xmm0
.LBB377:
.LBB373:
	.loc 2 112 10 view .LVU706
	call	__printf_chk@PLT
.LVL162:
	.loc 2 112 10 view .LVU707
	movsd	16(%rsp), %xmm1
	jmp	.L60
.LVL163:
.L49:
	.loc 2 112 10 view .LVU708
.LBE373:
.LBE377:
	.loc 1 254 55 is_stmt 1 view .LVU709
.LBB378:
.LBI378:
	.loc 2 103 1 view .LVU710
.LBB379:
	.loc 2 105 3 view .LVU711
	.loc 2 105 10 is_stmt 0 view .LVU712
	movq	stderr(%rip), %rdi
	leaq	.LC19(%rip), %rcx
	leaq	.LC20(%rip), %rdx
	xorl	%eax, %eax
	movl	$1, %esi
	call	__fprintf_chk@PLT
.LVL164:
	.loc 2 105 10 view .LVU713
	jmp	.L50
.LVL165:
.L46:
	.loc 2 105 10 view .LVU714
.LBE379:
.LBE378:
	.loc 1 233 55 is_stmt 1 view .LVU715
.LBB380:
.LBI380:
	.loc 2 110 1 view .LVU716
.LBB381:
	.loc 2 112 3 view .LVU717
	.loc 2 112 10 is_stmt 0 view .LVU718
	leaq	.LC19(%rip), %rdx
	leaq	.LC24(%rip), %rsi
	movl	$1, %edi
	xorl	%eax, %eax
	call	__printf_chk@PLT
.LVL166:
	.loc 2 112 10 view .LVU719
.LBE381:
.LBE380:
	.loc 1 234 9 is_stmt 1 view .LVU720
.LBB382:
	.loc 2 110 1 view .LVU721
.LBB274:
	.loc 2 112 3 view .LVU722
	.loc 2 112 10 is_stmt 0 view .LVU723
	xorl	%eax, %eax
	movq	%r12, %rdx
	movl	$1, %edi
	leaq	.LC23(%rip), %rsi
	call	__printf_chk@PLT
.LVL167:
	.loc 2 112 10 view .LVU724
.LBE274:
.LBE382:
	.loc 1 236 9 is_stmt 1 view .LVU725
	.loc 1 236 45 is_stmt 0 view .LVU726
	testq	%r12, %r12
	jne	.L47
	.loc 1 240 45 view .LVU727
	pxor	%xmm2, %xmm2
	.loc 1 239 45 view .LVU728
	movapd	%xmm2, %xmm3
	.loc 1 238 45 view .LVU729
	movapd	%xmm2, %xmm4
	.loc 1 237 45 view .LVU730
	movapd	%xmm2, %xmm5
	.loc 1 236 45 view .LVU731
	movapd	%xmm2, %xmm6
	.loc 1 241 45 view .LVU732
	movapd	%xmm2, %xmm1
	jmp	.L48
.LVL168:
.L64:
	.loc 1 241 45 view .LVU733
	movq	%r12, %r15
.LVL169:
	.loc 1 241 45 view .LVU734
	pxor	%xmm0, %xmm0
	jmp	.L43
.LVL170:
.L82:
	.loc 1 230 32 is_stmt 1 view .LVU735
.LBB383:
.LBI383:
	.loc 2 110 1 view .LVU736
.LBB384:
	.loc 2 112 3 view .LVU737
	.loc 2 112 10 is_stmt 0 view .LVU738
	leaq	.LC19(%rip), %rdx
	leaq	.LC20(%rip), %rsi
	movl	$1, %edi
	xorl	%eax, %eax
	call	__printf_chk@PLT
.LVL171:
	.loc 2 112 10 view .LVU739
	leaq	.LC21(%rip), %rax
	movq	%rax, 16(%rsp)
	jmp	.L45
.LVL172:
.L74:
	.loc 2 112 10 view .LVU740
.LBE384:
.LBE383:
.LBE385:
.LBE405:
	.loc 1 194 50 view .LVU741
	movl	$3, %eax
	jmp	.L32
.LVL173:
.L76:
.LBB406:
.LBB386:
	.loc 1 221 70 is_stmt 1 discriminator 1 view .LVU742
	leaq	__PRETTY_FUNCTION__.0(%rip), %rcx
	movl	$221, %edx
	leaq	.LC11(%rip), %rsi
	leaq	.LC12(%rip), %rdi
	call	__assert_fail@PLT
.LVL174:
.L77:
	.loc 1 222 70 discriminator 1 view .LVU743
	leaq	__PRETTY_FUNCTION__.0(%rip), %rcx
	movl	$222, %edx
	leaq	.LC11(%rip), %rsi
	leaq	.LC13(%rip), %rdi
	call	__assert_fail@PLT
.LVL175:
.L78:
	.loc 1 223 70 discriminator 1 view .LVU744
	leaq	__PRETTY_FUNCTION__.0(%rip), %rcx
	movl	$223, %edx
	leaq	.LC11(%rip), %rsi
	leaq	.LC14(%rip), %rdi
	call	__assert_fail@PLT
.LVL176:
.L79:
	.loc 1 224 70 discriminator 1 view .LVU745
	leaq	__PRETTY_FUNCTION__.0(%rip), %rcx
	movl	$224, %edx
	leaq	.LC11(%rip), %rsi
	leaq	.LC15(%rip), %rdi
	call	__assert_fail@PLT
.LVL177:
.L80:
	.loc 1 225 70 discriminator 1 view .LVU746
	leaq	__PRETTY_FUNCTION__.0(%rip), %rcx
	movl	$225, %edx
	leaq	.LC11(%rip), %rsi
	leaq	.LC16(%rip), %rdi
	call	__assert_fail@PLT
.LVL178:
.L81:
	.loc 1 226 70 discriminator 1 view .LVU747
	leaq	__PRETTY_FUNCTION__.0(%rip), %rcx
	movl	$226, %edx
	leaq	.LC11(%rip), %rsi
	leaq	.LC17(%rip), %rdi
	call	__assert_fail@PLT
.LVL179:
.L88:
	.loc 1 226 70 is_stmt 0 discriminator 1 view .LVU748
.LBE386:
.LBE406:
	.loc 1 282 1 view .LVU749
	call	__stack_chk_fail@PLT
.LVL180:
	.cfi_endproc
.LFE66:
	.size	main, .-main
	.section	.rodata
	.type	__PRETTY_FUNCTION__.0, @object
	.size	__PRETTY_FUNCTION__.0, 5
__PRETTY_FUNCTION__.0:
	.string	"main"
	.globl	header_width
	.align 32
	.type	header_width, @object
	.size	header_width, 48
header_width:
	.long	10
	.long	8
	.long	11
	.long	9
	.long	9
	.long	9
	.long	9
	.long	9
	.long	11
	.long	7
	.long	9
	.long	10
	.globl	header_text
	.section	.rodata.str1.1
.LC41:
	.string	"last_p0/2"
.LC42:
	.string	"p0/2+%"
.LC43:
	.string	"p0"
.LC44:
	.string	"p1=p0+%"
.LC45:
	.string	"p25=p0+%"
.LC46:
	.string	"p50=p0+%"
.LC47:
	.string	"p75=p0+%"
.LC48:
	.string	"p99=p0+%"
.LC49:
	.string	"p100=p0+%"
.LC50:
	.string	"p0*R+%"
.LC51:
	.string	"=row_sec"
	.section	.data.rel.local,"aw"
	.align 32
	.type	header_text, @object
	.size	header_text, 96
header_text:
	.quad	.LC41
	.quad	.LC42
	.quad	.LC43
	.quad	.LC44
	.quad	.LC45
	.quad	.LC46
	.quad	.LC47
	.quad	.LC48
	.quad	.LC49
	.quad	.LC50
	.quad	.LC51
	.quad	.LC5
	.globl	ns_sorted
	.bss
	.align 32
	.type	ns_sorted, @object
	.size	ns_sorted, 1600
ns_sorted:
	.zero	1600
	.globl	ns
	.align 32
	.type	ns, @object
	.size	ns, 1600
ns:
	.zero	1600
	.globl	ts_start
	.align 16
	.type	ts_start, @object
	.size	ts_start, 16
ts_start:
	.zero	16
	.globl	use_what
	.section	.rodata.str1.1
.LC52:
	.string	"clogt"
	.section	.data.rel.local
	.align 8
	.type	use_what, @object
	.size	use_what, 8
use_what:
	.quad	.LC52
	.globl	invokes
	.data
	.align 8
	.type	invokes, @object
	.size	invokes, 8
invokes:
	.quad	2000000
	.globl	iteration
	.align 8
	.type	iteration, @object
	.size	iteration, 8
iteration:
	.quad	1
	.globl	iterations
	.align 8
	.type	iterations, @object
	.size	iterations, 8
iterations:
	.quad	3
	.section	.rodata.cst8,"aM",@progbits,8
	.align 8
.LC0:
	.long	-1598689907
	.long	1051772663
	.align 8
.LC1:
	.long	0
	.long	1104006501
	.align 8
.LC2:
	.long	0
	.long	1138753536
	.align 8
.LC18:
	.long	0
	.long	1079574528
	.align 8
.LC29:
	.long	-858993459
	.long	1076088012
	.align 8
.LC31:
	.long	0
	.long	1093567616
	.align 8
.LC34:
	.long	0
	.long	1083129856
	.text
.Letext0:
	.file 4 "/usr/lib/gcc/x86_64-linux-gnu/11/include/stddef.h"
	.file 5 "/usr/include/x86_64-linux-gnu/bits/types.h"
	.file 6 "/usr/include/x86_64-linux-gnu/bits/types/struct_FILE.h"
	.file 7 "/usr/include/x86_64-linux-gnu/bits/types/FILE.h"
	.file 8 "/usr/include/x86_64-linux-gnu/bits/stdint-intn.h"
	.file 9 "/usr/include/x86_64-linux-gnu/bits/stdint-uintn.h"
	.file 10 "/usr/include/x86_64-linux-gnu/bits/types/clockid_t.h"
	.file 11 "/usr/include/x86_64-linux-gnu/bits/types/struct_timeval.h"
	.file 12 "/usr/include/x86_64-linux-gnu/bits/types/struct_timespec.h"
	.file 13 "/usr/include/stdio.h"
	.file 14 "/usr/include/assert.h"
	.file 15 "/usr/include/locale.h"
	.file 16 "/usr/include/x86_64-linux-gnu/sys/time.h"
	.file 17 "/usr/include/time.h"
	.file 18 "<built-in>"
	.file 19 "/usr/include/x86_64-linux-gnu/bits/sched.h"
	.section	.note.GNU-stack,"",@progbits
	.section	.note.gnu.property,"a"
	.align 8
	.long	1f - 0f
	.long	4f - 1f
	.long	5
0:
	.string	"GNU"
1:
	.align 8
	.long	0xc0000002
	.long	3f - 2f
2:
	.long	0x3
3:
	.align 8
4:
