	.file	"test-cpu-determinism.c"
	.text
.Ltext0:
	.file 0 "/home/simon/Desktop/share/20240111-perf-gprof/cpu-determinism" "test-cpu-determinism.c"
	.p2align 4
	.globl	comp
	.type	comp, @function
comp:
.LVL0:
.LFB63:
	.file 1 "test-cpu-determinism.c"
	.loc 1 161 51 view -0
	.cfi_startproc
	.loc 1 161 51 is_stmt 0 view .LVU1
	endbr64
	.loc 1 162 5 is_stmt 1 view .LVU2
.LVL1:
	.loc 1 163 5 view .LVU3
	.loc 1 164 5 view .LVU4
	.loc 1 164 8 is_stmt 0 view .LVU5
	movl	(%rsi), %edx
	.loc 1 164 24 view .LVU6
	movl	$1, %eax
	.loc 1 164 8 view .LVU7
	cmpl	%edx, (%rdi)
	jg	.L1
	.loc 1 165 5 is_stmt 1 view .LVU8
	.loc 1 165 8 is_stmt 0 view .LVU9
	setl	%al
	movzbl	%al, %eax
	negl	%eax
.L1:
	.loc 1 167 1 view .LVU10
	ret
	.cfi_endproc
.LFE63:
	.size	comp, .-comp
	.section	.rodata.str1.8,"aMS",@progbits,1
	.align 8
.LC3:
	.string	"%.6f %s // %lu=iteration using gettimeofday() for clock at %lu avg ns of %'lu invokes\n"
	.text
	.p2align 4
	.globl	ini_time
	.type	ini_time, @function
ini_time:
.LFB62:
	.loc 1 88 21 is_stmt 1 view -0
	.cfi_startproc
	endbr64
	pushq	%r14
	.cfi_def_cfa_offset 16
	.cfi_offset 14, -16
.LBB105:
.LBB106:
	.loc 1 18 5 is_stmt 0 view .LVU12
	xorl	%esi, %esi
.LBE106:
.LBE105:
	.loc 1 88 21 view .LVU13
	pushq	%r13
	.cfi_def_cfa_offset 24
	.cfi_offset 13, -24
	pushq	%r12
	.cfi_def_cfa_offset 32
	.cfi_offset 12, -32
	pushq	%rbp
	.cfi_def_cfa_offset 40
	.cfi_offset 6, -40
	pushq	%rbx
	.cfi_def_cfa_offset 48
	.cfi_offset 3, -48
	subq	$48, %rsp
	.cfi_def_cfa_offset 96
	.loc 1 88 21 view .LVU14
	movq	%fs:40, %rax
	movq	%rax, 40(%rsp)
	xorl	%eax, %eax
	.loc 1 89 5 is_stmt 1 view .LVU15
.LBB109:
.LBI105:
	.loc 1 16 46 view .LVU16
.LBB107:
	.loc 1 17 5 view .LVU17
	.loc 1 18 5 view .LVU18
	leaq	16(%rsp), %r12
	movq	%r12, %rdi
	call	gettimeofday@PLT
.LVL2:
	.loc 1 19 5 view .LVU19
	.loc 1 19 40 is_stmt 0 view .LVU20
	pxor	%xmm0, %xmm0
	.loc 1 19 12 view .LVU21
	pxor	%xmm1, %xmm1
.LBE107:
.LBE109:
.LBB110:
	.loc 1 91 27 view .LVU22
	cmpq	$0, invokes(%rip)
.LBE110:
.LBB111:
.LBB108:
	.loc 1 19 40 view .LVU23
	cvtsi2sdq	24(%rsp), %xmm0
	.loc 1 19 38 view .LVU24
	mulsd	.LC0(%rip), %xmm0
	.loc 1 19 12 view .LVU25
	cvtsi2sdq	16(%rsp), %xmm1
	.loc 1 19 30 view .LVU26
	addsd	%xmm1, %xmm0
	movsd	%xmm0, (%rsp)
.LVL3:
	.loc 1 19 30 view .LVU27
.LBE108:
.LBE111:
	.loc 1 90 5 is_stmt 1 view .LVU28
	.loc 1 91 5 view .LVU29
.LBB112:
	.loc 1 91 9 view .LVU30
	.loc 1 91 27 view .LVU31
	je	.L6
	.loc 1 91 18 is_stmt 0 view .LVU32
	xorl	%ebx, %ebx
	leaq	tv_start(%rip), %rbp
.LVL4:
	.p2align 4,,10
	.p2align 3
.L7:
	.loc 1 92 9 is_stmt 1 discriminator 3 view .LVU33
	.loc 1 92 14 is_stmt 0 discriminator 3 view .LVU34
	xorl	%esi, %esi
	movq	%rbp, %rdi
	.loc 1 91 40 discriminator 3 view .LVU35
	addq	$1, %rbx
.LVL5:
	.loc 1 92 14 discriminator 3 view .LVU36
	call	gettimeofday@PLT
.LVL6:
	.loc 1 91 40 is_stmt 1 discriminator 3 view .LVU37
	.loc 1 91 27 discriminator 3 view .LVU38
	cmpq	%rbx, invokes(%rip)
	ja	.L7
.LVL7:
.L6:
	.loc 1 91 27 is_stmt 0 discriminator 3 view .LVU39
.LBE112:
	.loc 1 94 5 is_stmt 1 view .LVU40
.LBB113:
.LBI113:
	.loc 1 16 46 view .LVU41
.LBB114:
	.loc 1 17 5 view .LVU42
	.loc 1 18 5 view .LVU43
	xorl	%esi, %esi
	movq	%r12, %rdi
	call	gettimeofday@PLT
.LVL8:
	.loc 1 19 5 view .LVU44
	.loc 1 19 40 is_stmt 0 view .LVU45
	pxor	%xmm1, %xmm1
	.loc 1 19 12 view .LVU46
	pxor	%xmm0, %xmm0
.LBE114:
.LBE113:
.LBB118:
.LBB119:
	.loc 1 18 5 view .LVU47
	xorl	%esi, %esi
.LBE119:
.LBE118:
.LBB123:
.LBB115:
	.loc 1 19 40 view .LVU48
	cvtsi2sdq	24(%rsp), %xmm1
	.loc 1 19 38 view .LVU49
	mulsd	.LC0(%rip), %xmm1
.LBE115:
.LBE123:
.LBB124:
.LBB120:
	.loc 1 18 5 view .LVU50
	movq	%r12, %rdi
.LBE120:
.LBE124:
	.loc 1 96 50 view .LVU51
	movq	invokes(%rip), %rbx
.LBB125:
.LBB116:
	.loc 1 19 12 view .LVU52
	cvtsi2sdq	16(%rsp), %xmm0
.LBE116:
.LBE125:
	.loc 1 97 5 view .LVU53
	movq	iteration(%rip), %r14
	movq	use_what(%rip), %r13
.LBB126:
.LBB117:
	.loc 1 19 30 view .LVU54
	addsd	%xmm0, %xmm1
	movsd	%xmm1, 8(%rsp)
.LVL9:
	.loc 1 19 30 view .LVU55
.LBE117:
.LBE126:
	.loc 1 95 5 is_stmt 1 view .LVU56
	.loc 1 96 5 view .LVU57
	.loc 1 97 5 view .LVU58
.LBB127:
.LBI118:
	.loc 1 16 46 view .LVU59
.LBB121:
	.loc 1 17 5 view .LVU60
	.loc 1 18 5 view .LVU61
	call	gettimeofday@PLT
.LVL10:
	.loc 1 19 5 view .LVU62
	.loc 1 19 40 is_stmt 0 view .LVU63
	pxor	%xmm0, %xmm0
	.loc 1 19 12 view .LVU64
	pxor	%xmm2, %xmm2
.LBE121:
.LBE127:
.LBB128:
.LBB129:
	.file 2 "/usr/include/x86_64-linux-gnu/bits/stdio2.h"
	.loc 2 112 10 view .LVU65
	movsd	8(%rsp), %xmm1
	movq	40(%rsp), %rax
	subq	%fs:40, %rax
.LBE129:
.LBE128:
.LBB137:
.LBB122:
	.loc 1 19 40 view .LVU66
	cvtsi2sdq	24(%rsp), %xmm0
	.loc 1 19 38 view .LVU67
	mulsd	.LC0(%rip), %xmm0
	.loc 1 19 12 view .LVU68
	cvtsi2sdq	16(%rsp), %xmm2
	.loc 1 19 30 view .LVU69
	addsd	%xmm2, %xmm0
.LVL11:
	.loc 1 19 30 view .LVU70
.LBE122:
.LBE137:
.LBB138:
.LBI128:
	.loc 2 110 1 is_stmt 1 view .LVU71
.LBB130:
	.loc 2 112 3 view .LVU72
	.loc 2 112 10 is_stmt 0 view .LVU73
	jne	.L16
.LBE130:
.LBE138:
	.loc 1 95 12 view .LVU74
	subsd	(%rsp), %xmm1
	.loc 1 96 37 view .LVU75
	mulsd	.LC1(%rip), %xmm1
	.loc 1 96 50 view .LVU76
	testq	%rbx, %rbx
	js	.L9
	pxor	%xmm2, %xmm2
	cvtsi2sdq	%rbx, %xmm2
.L10:
	divsd	%xmm2, %xmm1
	.loc 1 96 14 view .LVU77
	movsd	.LC2(%rip), %xmm2
	comisd	%xmm2, %xmm1
	jnb	.L11
	cvttsd2siq	%xmm1, %r8
.LVL12:
.L12:
	.loc 1 98 1 view .LVU78
	addq	$48, %rsp
	.cfi_remember_state
	.cfi_def_cfa_offset 48
.LBB139:
.LBB131:
	.loc 2 112 10 view .LVU79
	movq	%rbx, %r9
	movq	%r14, %rcx
	movq	%r13, %rdx
.LBE131:
.LBE139:
	.loc 1 98 1 view .LVU80
	popq	%rbx
	.cfi_def_cfa_offset 40
.LBB140:
.LBB132:
	.loc 2 112 10 view .LVU81
	movl	$1, %edi
.LBE132:
.LBE140:
	.loc 1 98 1 view .LVU82
	popq	%rbp
	.cfi_def_cfa_offset 32
.LBB141:
.LBB133:
	.loc 2 112 10 view .LVU83
	movl	$1, %eax
.LBE133:
.LBE141:
	.loc 1 98 1 view .LVU84
	popq	%r12
	.cfi_def_cfa_offset 24
.LBB142:
.LBB134:
	.loc 2 112 10 view .LVU85
	leaq	.LC3(%rip), %rsi
.LBE134:
.LBE142:
	.loc 1 98 1 view .LVU86
	popq	%r13
	.cfi_def_cfa_offset 16
	popq	%r14
	.cfi_def_cfa_offset 8
.LBB143:
.LBB135:
	.loc 2 112 10 view .LVU87
	jmp	__printf_chk@PLT
.LVL13:
	.p2align 4,,10
	.p2align 3
.L11:
	.cfi_restore_state
	.loc 2 112 10 view .LVU88
.LBE135:
.LBE143:
	.loc 1 96 14 view .LVU89
	subsd	%xmm2, %xmm1
	cvttsd2siq	%xmm1, %r8
	btcq	$63, %r8
.LVL14:
	.loc 1 96 14 view .LVU90
	jmp	.L12
.LVL15:
	.p2align 4,,10
	.p2align 3
.L9:
	.loc 1 96 50 view .LVU91
	movq	%rbx, %rax
	movq	%rbx, %rdx
	pxor	%xmm2, %xmm2
	shrq	%rax
	andl	$1, %edx
	orq	%rdx, %rax
	cvtsi2sdq	%rax, %xmm2
	addsd	%xmm2, %xmm2
	jmp	.L10
.L16:
.LBB144:
.LBB136:
	.loc 2 112 10 view .LVU92
	call	__stack_chk_fail@PLT
.LVL16:
.LBE136:
.LBE144:
	.cfi_endproc
.LFE62:
	.size	ini_time, .-ini_time
	.p2align 4
	.globl	burn_cpu
	.type	burn_cpu, @function
burn_cpu:
.LVL17:
.LFB64:
	.loc 1 178 57 is_stmt 1 view -0
	.cfi_startproc
	.loc 1 178 57 is_stmt 0 view .LVU94
	endbr64
	pushq	%r12
	.cfi_def_cfa_offset 16
	.cfi_offset 12, -16
.LBB145:
.LBB146:
	.loc 1 78 5 view .LVU95
	xorl	%esi, %esi
.LBE146:
.LBE145:
	.loc 1 178 57 view .LVU96
	pushq	%rbp
	.cfi_def_cfa_offset 24
	.cfi_offset 6, -24
	pushq	%rbx
	.cfi_def_cfa_offset 32
	.cfi_offset 3, -32
	movl	%edi, %ebx
	subq	$48, %rsp
	.cfi_def_cfa_offset 80
	.loc 1 178 57 view .LVU97
	movq	%fs:40, %rax
	movq	%rax, 40(%rsp)
	xorl	%eax, %eax
	.loc 1 179 5 is_stmt 1 view .LVU98
.LBB149:
.LBB147:
	.loc 1 78 5 is_stmt 0 view .LVU99
	leaq	16(%rsp), %r12
.LBE147:
.LBE149:
	.loc 1 179 25 view .LVU100
	movq	$0, 8(%rsp)
	.loc 1 180 5 is_stmt 1 view .LVU101
.LBB150:
.LBI145:
	.loc 1 75 48 view .LVU102
.LBB148:
	.loc 1 76 5 view .LVU103
	.loc 1 77 5 view .LVU104
	.loc 1 78 5 view .LVU105
	movq	%r12, %rdi
.LVL18:
	.loc 1 78 5 is_stmt 0 view .LVU106
	call	gettimeofday@PLT
.LVL19:
	.loc 1 79 5 is_stmt 1 view .LVU107
	.loc 1 79 5 view .LVU108
	movq	16(%rsp), %rbp
	movq	24(%rsp), %rax
	subq	tv_start(%rip), %rbp
.LVL20:
	.loc 1 79 5 view .LVU109
	.loc 1 79 5 view .LVU110
	subq	8+tv_start(%rip), %rax
.LVL21:
	.loc 1 79 5 is_stmt 0 view .LVU111
	jns	.L18
	.loc 1 79 5 is_stmt 1 view .LVU112
	subq	$1, %rbp
.LVL22:
	.loc 1 79 5 view .LVU113
	addq	$1000000, %rax
.LVL23:
.L18:
	.loc 1 79 5 view .LVU114
	.loc 1 80 5 view .LVU115
	.loc 1 80 35 is_stmt 0 view .LVU116
	imulq	$1000000000, %rbp, %rbp
.LVL24:
	.loc 1 80 68 view .LVU117
	imulq	$1000, %rax, %rax
.LVL25:
	.loc 1 80 49 view .LVU118
	addq	%rax, %rbp
.LVL26:
	.loc 1 81 5 is_stmt 1 view .LVU119
	.p2align 4,,10
	.p2align 3
.L19:
	.loc 1 81 5 is_stmt 0 view .LVU120
.LBE148:
.LBE150:
	.loc 1 181 5 is_stmt 1 discriminator 1 view .LVU121
	.loc 1 182 9 discriminator 1 view .LVU122
	.loc 1 183 15 is_stmt 0 discriminator 1 view .LVU123
	movq	8(%rsp), %rax
	.loc 1 182 15 discriminator 1 view .LVU124
	subl	$1, %ebx
.LVL27:
	.loc 1 183 9 is_stmt 1 discriminator 1 view .LVU125
	.loc 1 183 15 is_stmt 0 discriminator 1 view .LVU126
	addq	$1, %rax
	movq	%rax, 8(%rsp)
	.loc 1 184 19 is_stmt 1 discriminator 1 view .LVU127
	testl	%ebx, %ebx
	jg	.L19
	.loc 1 185 5 view .LVU128
.LBB151:
.LBI151:
	.loc 1 75 48 view .LVU129
.LBB152:
	.loc 1 76 5 view .LVU130
	.loc 1 77 5 view .LVU131
	.loc 1 78 5 view .LVU132
	xorl	%esi, %esi
	movq	%r12, %rdi
	call	gettimeofday@PLT
.LVL28:
	.loc 1 79 5 view .LVU133
	.loc 1 79 5 view .LVU134
	movq	16(%rsp), %rax
	movq	24(%rsp), %rdx
	subq	tv_start(%rip), %rax
.LVL29:
	.loc 1 79 5 view .LVU135
	.loc 1 79 5 view .LVU136
	subq	8+tv_start(%rip), %rdx
.LVL30:
	.loc 1 79 5 is_stmt 0 view .LVU137
	jns	.L20
	.loc 1 79 5 is_stmt 1 view .LVU138
	subq	$1, %rax
.LVL31:
	.loc 1 79 5 view .LVU139
	addq	$1000000, %rdx
.LVL32:
.L20:
	.loc 1 79 5 view .LVU140
	.loc 1 80 5 view .LVU141
	.loc 1 81 5 view .LVU142
	.loc 1 81 5 is_stmt 0 view .LVU143
.LBE152:
.LBE151:
	.loc 1 186 5 is_stmt 1 view .LVU144
.LBB154:
.LBI154:
	.loc 1 84 48 view .LVU145
.LBB155:
	.loc 1 85 5 view .LVU146
	.loc 1 85 5 is_stmt 0 view .LVU147
.LBE155:
.LBE154:
.LBB157:
.LBB153:
	.loc 1 80 35 view .LVU148
	imulq	$1000000000, %rax, %rax
.LVL33:
	.loc 1 80 68 view .LVU149
	imulq	$1000, %rdx, %rdx
	.loc 1 80 49 view .LVU150
	addq	%rdx, %rax
.LVL34:
	.loc 1 80 49 view .LVU151
.LBE153:
.LBE157:
.LBB158:
.LBB156:
	.loc 1 85 15 view .LVU152
	subq	%rbp, %rax
.LVL35:
	.loc 1 85 15 view .LVU153
.LBE156:
.LBE158:
	.loc 1 187 1 view .LVU154
	movq	40(%rsp), %rdx
	subq	%fs:40, %rdx
	jne	.L24
	addq	$48, %rsp
	.cfi_remember_state
	.cfi_def_cfa_offset 32
	popq	%rbx
	.cfi_def_cfa_offset 24
.LVL36:
	.loc 1 187 1 view .LVU155
	popq	%rbp
	.cfi_def_cfa_offset 16
.LVL37:
	.loc 1 187 1 view .LVU156
	popq	%r12
	.cfi_def_cfa_offset 8
	ret
.LVL38:
.L24:
	.cfi_restore_state
	.loc 1 187 1 view .LVU157
	call	__stack_chk_fail@PLT
.LVL39:
	.cfi_endproc
.LFE64:
	.size	burn_cpu, .-burn_cpu
	.section	.rodata.str1.1,"aMS",@progbits,1
.LC5:
	.string	""
.LC6:
	.string	"USE_ITERATIONS"
	.section	.rodata.str1.8
	.align 8
.LC7:
	.string	"%.6f %s // start %d=cpu_num %lu=iterations %s=getenv(\"USE_ITERATIONS\")\n"
	.section	.rodata.str1.1
.LC8:
	.string	"%.6f %s  %4u=REPEATS ns:"
.LC9:
	.string	" %*s"
.LC10:
	.string	"%.6f %s %'11d=loops"
.LC11:
	.string	"test-cpu-determinism.c"
.LC12:
	.string	"p001 >= p000"
.LC13:
	.string	"p025 >= p001"
.LC14:
	.string	"p050 >= p025"
.LC15:
	.string	"p075 >= p050"
.LC16:
	.string	"p099 >= p075"
.LC17:
	.string	"p100 >= p099"
.LC19:
	.string	"n/a"
.LC20:
	.string	" %10s"
.LC21:
	.string	" %'10lu"
.LC22:
	.string	" %+'8.1f"
.LC23:
	.string	" %'11lu"
.LC24:
	.string	" %8s"
.LC25:
	.string	" %'+9.1f"
.LC26:
	.string	" %'+11.1f"
.LC27:
	.string	" %+'10.3f"
.LC28:
	.string	" %3luM"
.LC30:
	.string	" %.1fM"
.LC32:
	.string	" %3luK"
.LC33:
	.string	" %.1fK"
.LC35:
	.string	" %3lu "
.LC36:
	.string	"%8s"
.LC37:
	.string	" %+7.1f"
.LC38:
	.string	" %9.6f"
.LC39:
	.string	"\r"
.LC40:
	.string	"%.6f %s // exit\n"
	.section	.text.startup,"ax",@progbits
	.p2align 4
	.globl	main
	.type	main, @function
main:
.LFB65:
	.loc 1 189 16 is_stmt 1 view -0
	.cfi_startproc
	endbr64
	pushq	%r15
	.cfi_def_cfa_offset 16
	.cfi_offset 15, -16
	.loc 1 190 5 is_stmt 0 view .LVU159
	movl	$1, %edi
	leaq	.LC5(%rip), %rsi
	.loc 1 189 16 view .LVU160
	pushq	%r14
	.cfi_def_cfa_offset 24
	.cfi_offset 14, -24
	pushq	%r13
	.cfi_def_cfa_offset 32
	.cfi_offset 13, -32
	pushq	%r12
	.cfi_def_cfa_offset 40
	.cfi_offset 12, -40
	pushq	%rbp
	.cfi_def_cfa_offset 48
	.cfi_offset 6, -48
	.loc 1 192 8 view .LVU161
	leaq	.LC6(%rip), %rbp
	.loc 1 189 16 view .LVU162
	pushq	%rbx
	.cfi_def_cfa_offset 56
	.cfi_offset 3, -56
	subq	$136, %rsp
	.cfi_def_cfa_offset 192
	.loc 1 189 16 view .LVU163
	movq	%fs:40, %rax
	movq	%rax, 120(%rsp)
	xorl	%eax, %eax
	.loc 1 190 5 is_stmt 1 view .LVU164
	call	setlocale@PLT
.LVL40:
	.loc 1 191 5 view .LVU165
	.loc 1 191 19 is_stmt 0 view .LVU166
	call	sched_getcpu@PLT
.LVL41:
	.loc 1 192 8 view .LVU167
	movq	%rbp, %rdi
	.loc 1 191 19 view .LVU168
	movl	%eax, %r12d
.LVL42:
	.loc 1 192 5 is_stmt 1 view .LVU169
	.loc 1 192 8 is_stmt 0 view .LVU170
	call	getenv@PLT
.LVL43:
	.loc 1 192 7 view .LVU171
	testq	%rax, %rax
	je	.L26
	.loc 1 193 9 is_stmt 1 view .LVU172
	.loc 1 193 27 is_stmt 0 view .LVU173
	movq	%rbp, %rdi
	call	getenv@PLT
.LVL44:
.LBB159:
.LBB160:
	.file 3 "/usr/include/stdlib.h"
	.loc 3 364 16 view .LVU174
	movl	$10, %edx
	xorl	%esi, %esi
.LBE160:
.LBE159:
	.loc 1 193 27 view .LVU175
	movq	%rax, %rdi
.LVL45:
.LBB162:
.LBI159:
	.loc 3 362 1 is_stmt 1 view .LVU176
.LBB161:
	.loc 3 364 3 view .LVU177
	.loc 3 364 16 is_stmt 0 view .LVU178
	call	strtol@PLT
.LVL46:
	.loc 3 364 16 view .LVU179
.LBE161:
.LBE162:
	.loc 1 193 22 view .LVU180
	cltq
	.loc 1 194 9 is_stmt 1 view .LVU181
	.loc 1 194 50 is_stmt 0 view .LVU182
	testq	%rax, %rax
	je	.L69
.L27:
	.loc 1 194 20 discriminator 4 view .LVU183
	movq	%rax, iterations(%rip)
.L26:
	.loc 1 196 5 is_stmt 1 view .LVU184
	movq	%rbp, %rdi
	leaq	1600+ns(%rip), %r14
	call	getenv@PLT
.LVL47:
.LBB163:
.LBB164:
	.loc 1 18 5 is_stmt 0 view .LVU185
	leaq	96(%rsp), %rdi
	xorl	%esi, %esi
.LBE164:
.LBE163:
	.loc 1 196 5 view .LVU186
	movq	iterations(%rip), %rbp
.LBB172:
.LBB165:
	.loc 1 18 5 view .LVU187
	movq	%rdi, 8(%rsp)
.LBE165:
.LBE172:
	.loc 1 196 5 view .LVU188
	movq	use_what(%rip), %r13
.LBB173:
.LBI163:
	.loc 1 16 46 is_stmt 1 view .LVU189
.LBB166:
	.loc 1 17 5 view .LVU190
	.loc 1 18 5 view .LVU191
.LBE166:
.LBE173:
	.loc 1 196 5 is_stmt 0 view .LVU192
	movq	%rax, %rbx
.LBB174:
.LBB167:
	.loc 1 18 5 view .LVU193
	call	gettimeofday@PLT
.LVL48:
	.loc 1 19 5 is_stmt 1 view .LVU194
	.loc 1 19 40 is_stmt 0 view .LVU195
	pxor	%xmm0, %xmm0
	.loc 1 19 12 view .LVU196
	pxor	%xmm1, %xmm1
.LBE167:
.LBE174:
.LBB175:
.LBB176:
	.loc 2 112 10 view .LVU197
	movq	%rbx, %r9
.LBE176:
.LBE175:
.LBB181:
.LBB168:
	.loc 1 19 40 view .LVU198
	cvtsi2sdq	104(%rsp), %xmm0
.LBE168:
.LBE181:
.LBB182:
.LBB177:
	.loc 2 112 10 view .LVU199
	movq	%rbp, %r8
	movl	%r12d, %ecx
	movq	%r13, %rdx
.LBE177:
.LBE182:
.LBB183:
.LBB169:
	.loc 1 19 38 view .LVU200
	mulsd	.LC0(%rip), %xmm0
.LBE169:
.LBE183:
.LBB184:
.LBB178:
	.loc 2 112 10 view .LVU201
	movl	$1, %edi
	movl	$1, %eax
.LBE178:
.LBE184:
.LBB185:
.LBB170:
	.loc 1 19 12 view .LVU202
	cvtsi2sdq	96(%rsp), %xmm1
.LBE170:
.LBE185:
.LBB186:
.LBB179:
	.loc 2 112 10 view .LVU203
	leaq	.LC7(%rip), %rsi
.LBE179:
.LBE186:
.LBB187:
.LBB171:
	.loc 1 19 30 view .LVU204
	addsd	%xmm1, %xmm0
.LVL49:
	.loc 1 19 30 view .LVU205
.LBE171:
.LBE187:
.LBB188:
.LBI175:
	.loc 2 110 1 is_stmt 1 view .LVU206
.LBB180:
	.loc 2 112 3 view .LVU207
	.loc 2 112 10 is_stmt 0 view .LVU208
	call	__printf_chk@PLT
.LVL50:
.L28:
	.loc 2 112 10 view .LVU209
.LBE180:
.LBE188:
	.loc 1 197 14 is_stmt 1 view .LVU210
	.loc 1 198 5 view .LVU211
	call	ini_time
.LVL51:
	.loc 1 199 5 view .LVU212
.LBB189:
.LBB190:
	.loc 1 18 5 is_stmt 0 view .LVU213
	movq	8(%rsp), %rdi
	xorl	%esi, %esi
.LBE190:
.LBE189:
	.loc 1 199 5 view .LVU214
	movq	use_what(%rip), %r12
.LBB195:
.LBI189:
	.loc 1 16 46 is_stmt 1 view .LVU215
.LBB191:
	.loc 1 17 5 view .LVU216
	.loc 1 18 5 view .LVU217
	call	gettimeofday@PLT
.LVL52:
	.loc 1 19 5 view .LVU218
	.loc 1 19 40 is_stmt 0 view .LVU219
	pxor	%xmm0, %xmm0
	.loc 1 19 12 view .LVU220
	pxor	%xmm1, %xmm1
.LBE191:
.LBE195:
.LBB196:
.LBB197:
	.loc 2 112 10 view .LVU221
	movq	%r12, %rdx
	movl	$200, %ecx
.LBE197:
.LBE196:
.LBB201:
.LBB192:
	.loc 1 19 40 view .LVU222
	cvtsi2sdq	104(%rsp), %xmm0
.LBE192:
.LBE201:
.LBB202:
.LBB198:
	.loc 2 112 10 view .LVU223
	leaq	.LC8(%rip), %rsi
	movl	$1, %edi
.LBE198:
.LBE202:
.LBB203:
.LBB193:
	.loc 1 19 38 view .LVU224
	mulsd	.LC0(%rip), %xmm0
	.loc 1 19 12 view .LVU225
	cvtsi2sdq	96(%rsp), %xmm1
.LBE193:
.LBE203:
.LBB204:
.LBB199:
	.loc 2 112 10 view .LVU226
	movl	$1, %eax
.LBE199:
.LBE204:
.LBB205:
.LBB194:
	.loc 1 19 30 view .LVU227
	addsd	%xmm1, %xmm0
.LVL53:
	.loc 1 19 30 view .LVU228
.LBE194:
.LBE205:
.LBB206:
.LBI196:
	.loc 2 110 1 is_stmt 1 view .LVU229
.LBB200:
	.loc 2 112 3 view .LVU230
	.loc 2 112 10 is_stmt 0 view .LVU231
	call	__printf_chk@PLT
.LVL54:
	.loc 2 112 10 view .LVU232
.LBE200:
.LBE206:
	.loc 1 200 5 is_stmt 1 view .LVU233
	.loc 1 201 5 view .LVU234
	.loc 1 201 29 view .LVU235
	.loc 1 201 22 is_stmt 0 view .LVU236
	leaq	header_text(%rip), %rax
	movq	(%rax), %rcx
	.loc 1 201 29 view .LVU237
	cmpb	$0, (%rcx)
	je	.L29
	leaq	8(%rax), %rbp
	leaq	4+header_width(%rip), %rbx
	movl	$10, %edx
	leaq	.LC9(%rip), %r12
	jmp	.L30
.LVL55:
.L70:
	.loc 1 202 36 view .LVU238
	movl	(%rbx), %edx
	addq	$4, %rbx
.L30:
	.loc 1 202 9 is_stmt 1 view .LVU239
.LVL56:
.LBB207:
.LBI207:
	.loc 2 110 1 view .LVU240
.LBB208:
	.loc 2 112 3 view .LVU241
	.loc 2 112 10 is_stmt 0 view .LVU242
	xorl	%eax, %eax
	movq	%r12, %rsi
	movl	$1, %edi
.LBE208:
.LBE207:
	.loc 1 201 29 view .LVU243
	addq	$8, %rbp
.LBB210:
.LBB209:
	.loc 2 112 10 view .LVU244
	call	__printf_chk@PLT
.LVL57:
	.loc 2 112 10 view .LVU245
.LBE209:
.LBE210:
	.loc 1 203 9 is_stmt 1 view .LVU246
	.loc 1 201 29 view .LVU247
	.loc 1 201 22 is_stmt 0 view .LVU248
	movq	-8(%rbp), %rcx
	.loc 1 201 29 view .LVU249
	cmpb	$0, (%rcx)
	jne	.L70
.L29:
	.loc 1 205 5 is_stmt 1 view .LVU250
.LVL58:
.LBB211:
.LBI211:
	.loc 2 110 1 view .LVU251
.LBB212:
	.loc 2 112 3 view .LVU252
	.loc 2 112 10 is_stmt 0 view .LVU253
	movl	$10, %edi
.LBE212:
.LBE211:
	.loc 1 207 13 view .LVU254
	movq	$-1, %r15
.LBB214:
.LBB213:
	.loc 2 112 10 view .LVU255
	call	putchar@PLT
.LVL59:
	.loc 2 112 10 view .LVU256
.LBE213:
.LBE214:
	.loc 1 206 5 is_stmt 1 view .LVU257
	.loc 1 207 5 view .LVU258
	.loc 1 208 5 view .LVU259
.LBB215:
	.loc 1 208 9 view .LVU260
	.loc 1 208 35 view .LVU261
	.loc 1 208 13 is_stmt 0 view .LVU262
	movl	$24, 56(%rsp)
.LVL60:
.L56:
.LBB216:
	.loc 1 210 9 is_stmt 1 view .LVU263
.LBB217:
.LBB218:
	.loc 1 18 5 is_stmt 0 view .LVU264
	movq	8(%rsp), %rbx
.LBE218:
.LBE217:
	.loc 1 210 13 view .LVU265
	movzbl	56(%rsp), %ecx
.LBB225:
.LBB219:
	.loc 1 18 5 view .LVU266
	xorl	%esi, %esi
.LBE219:
.LBE225:
	.loc 1 210 13 view .LVU267
	movl	$1, %ebp
	.loc 1 211 9 view .LVU268
	movq	use_what(%rip), %r12
	leaq	ns_sorted(%rip), %r13
.LBB226:
.LBB220:
	.loc 1 18 5 view .LVU269
	movq	%rbx, %rdi
.LBE220:
.LBE226:
	.loc 1 210 13 view .LVU270
	sall	%cl, %ebp
.LVL61:
	.loc 1 211 9 is_stmt 1 view .LVU271
.LBB227:
.LBI217:
	.loc 1 16 46 view .LVU272
.LBB221:
	.loc 1 17 5 view .LVU273
	.loc 1 18 5 view .LVU274
	call	gettimeofday@PLT
.LVL62:
	.loc 1 19 5 view .LVU275
	.loc 1 19 40 is_stmt 0 view .LVU276
	pxor	%xmm0, %xmm0
	.loc 1 19 12 view .LVU277
	pxor	%xmm1, %xmm1
.LBE221:
.LBE227:
.LBB228:
.LBB229:
	.loc 2 112 10 view .LVU278
	movq	%r12, %rdx
.LBE229:
.LBE228:
.LBB233:
.LBB222:
	.loc 1 19 40 view .LVU279
	cvtsi2sdq	104(%rsp), %xmm0
.LBE222:
.LBE233:
.LBB234:
.LBB230:
	.loc 2 112 10 view .LVU280
	movl	%ebp, %ecx
	leaq	.LC10(%rip), %rsi
	movl	$1, %edi
.LBE230:
.LBE234:
.LBB235:
.LBB223:
	.loc 1 19 38 view .LVU281
	mulsd	.LC0(%rip), %xmm0
	.loc 1 19 12 view .LVU282
	cvtsi2sdq	96(%rsp), %xmm1
.LBE223:
.LBE235:
.LBB236:
.LBB231:
	.loc 2 112 10 view .LVU283
	movl	$1, %eax
.LBE231:
.LBE236:
.LBB237:
.LBB224:
	.loc 1 19 30 view .LVU284
	addsd	%xmm1, %xmm0
.LVL63:
	.loc 1 19 30 view .LVU285
.LBE224:
.LBE237:
.LBB238:
.LBI228:
	.loc 2 110 1 is_stmt 1 view .LVU286
.LBB232:
	.loc 2 112 3 view .LVU287
	.loc 2 112 10 is_stmt 0 view .LVU288
	call	__printf_chk@PLT
.LVL64:
	.loc 2 112 10 view .LVU289
.LBE232:
.LBE238:
	.loc 1 212 9 is_stmt 1 view .LVU290
.LBB239:
.LBI239:
	.loc 1 16 46 view .LVU291
.LBB240:
	.loc 1 17 5 view .LVU292
	.loc 1 18 5 view .LVU293
	movq	%rbx, %rdi
	xorl	%esi, %esi
	leaq	ns(%rip), %rbx
	call	gettimeofday@PLT
.LVL65:
	.loc 1 19 5 view .LVU294
	.loc 1 19 40 is_stmt 0 view .LVU295
	pxor	%xmm0, %xmm0
	.loc 1 19 12 view .LVU296
	pxor	%xmm1, %xmm1
	movq	%rbx, %r12
	.loc 1 19 40 view .LVU297
	cvtsi2sdq	104(%rsp), %xmm0
	.loc 1 19 38 view .LVU298
	mulsd	.LC0(%rip), %xmm0
	.loc 1 19 12 view .LVU299
	cvtsi2sdq	96(%rsp), %xmm1
	.loc 1 19 30 view .LVU300
	addsd	%xmm1, %xmm0
	movsd	%xmm0, 72(%rsp)
.LVL66:
	.loc 1 19 30 view .LVU301
.LBE240:
.LBE239:
	.loc 1 213 9 is_stmt 1 view .LVU302
.LBB241:
	.loc 1 213 13 view .LVU303
	.loc 1 213 26 view .LVU304
	.p2align 4,,10
	.p2align 3
.L31:
	.loc 1 215 13 discriminator 3 view .LVU305
	.loc 1 215 21 is_stmt 0 discriminator 3 view .LVU306
	movl	%ebp, %edi
	.loc 1 213 26 discriminator 3 view .LVU307
	addq	$8, %r12
.LVL67:
	.loc 1 213 26 discriminator 3 view .LVU308
	addq	$8, %r13
	.loc 1 215 21 discriminator 3 view .LVU309
	call	burn_cpu
.LVL68:
	.loc 1 215 19 discriminator 3 view .LVU310
	movq	%rax, -8(%r12)
	.loc 1 216 13 is_stmt 1 discriminator 3 view .LVU311
	.loc 1 216 26 is_stmt 0 discriminator 3 view .LVU312
	movq	%rax, -8(%r13)
	.loc 1 213 39 is_stmt 1 discriminator 3 view .LVU313
.LVL69:
	.loc 1 213 26 discriminator 3 view .LVU314
	cmpq	%r14, %r12
	jne	.L31
.LBE241:
	.loc 1 218 9 view .LVU315
.LBB242:
.LBI242:
	.loc 1 16 46 view .LVU316
.LBB243:
	.loc 1 17 5 view .LVU317
	.loc 1 18 5 view .LVU318
	movq	8(%rsp), %rdi
	xorl	%esi, %esi
	call	gettimeofday@PLT
.LVL70:
	.loc 1 19 5 view .LVU319
	.loc 1 19 40 is_stmt 0 view .LVU320
	pxor	%xmm0, %xmm0
	.loc 1 19 12 view .LVU321
	pxor	%xmm1, %xmm1
.LBE243:
.LBE242:
	.loc 1 219 9 view .LVU322
	leaq	comp(%rip), %rcx
.LBB247:
.LBB244:
	.loc 1 19 40 view .LVU323
	cvtsi2sdq	104(%rsp), %xmm0
.LBE244:
.LBE247:
	.loc 1 219 9 view .LVU324
	movl	$8, %edx
	movl	$200, %esi
.LBB248:
.LBB245:
	.loc 1 19 38 view .LVU325
	mulsd	.LC0(%rip), %xmm0
	.loc 1 19 12 view .LVU326
	cvtsi2sdq	96(%rsp), %xmm1
.LBE245:
.LBE248:
	.loc 1 219 9 view .LVU327
	leaq	ns_sorted(%rip), %rdi
.LBB249:
.LBB246:
	.loc 1 19 30 view .LVU328
	addsd	%xmm1, %xmm0
	movsd	%xmm0, 80(%rsp)
.LVL71:
	.loc 1 19 30 view .LVU329
.LBE246:
.LBE249:
	.loc 1 219 9 is_stmt 1 view .LVU330
	call	qsort@PLT
.LVL72:
	.loc 1 220 9 view .LVU331
	.loc 1 220 17 is_stmt 0 view .LVU332
	leaq	ns_sorted(%rip), %rax
	.loc 1 221 17 view .LVU333
	movq	8+ns_sorted(%rip), %r13
	.loc 1 220 17 view .LVU334
	movq	(%rax), %r12
.LVL73:
	.loc 1 221 9 is_stmt 1 view .LVU335
	.loc 1 221 70 view .LVU336
	cmpq	%r13, %r12
	jg	.L71
	.loc 1 222 9 view .LVU337
	.loc 1 222 17 is_stmt 0 view .LVU338
	movq	392+ns_sorted(%rip), %rax
	movq	%rax, 24(%rsp)
.LVL74:
	.loc 1 222 70 is_stmt 1 view .LVU339
	cmpq	%rax, %r13
	jg	.L72
	.loc 1 223 9 view .LVU340
	.loc 1 223 17 is_stmt 0 view .LVU341
	movq	792+ns_sorted(%rip), %rax
.LVL75:
	.loc 1 223 17 view .LVU342
	movq	%rax, 32(%rsp)
.LVL76:
	.loc 1 223 70 is_stmt 1 view .LVU343
	cmpq	%rax, 24(%rsp)
	jg	.L73
	.loc 1 224 9 view .LVU344
	.loc 1 224 17 is_stmt 0 view .LVU345
	movq	1192+ns_sorted(%rip), %rax
.LVL77:
	.loc 1 224 17 view .LVU346
	movq	%rax, 40(%rsp)
.LVL78:
	.loc 1 224 70 is_stmt 1 view .LVU347
	cmpq	%rax, 32(%rsp)
	jg	.L74
	.loc 1 225 9 view .LVU348
	.loc 1 225 17 is_stmt 0 view .LVU349
	movq	1576+ns_sorted(%rip), %rax
.LVL79:
	.loc 1 225 17 view .LVU350
	movq	%rax, 48(%rsp)
.LVL80:
	.loc 1 225 70 is_stmt 1 view .LVU351
	cmpq	%rax, 40(%rsp)
	jg	.L75
	.loc 1 226 9 view .LVU352
	.loc 1 226 17 is_stmt 0 view .LVU353
	movq	1592+ns_sorted(%rip), %rax
.LVL81:
	.loc 1 226 17 view .LVU354
	movq	%rax, 88(%rsp)
.LVL82:
	.loc 1 226 70 is_stmt 1 view .LVU355
	cmpq	%rax, 48(%rsp)
	jg	.L76
	.loc 1 227 9 view .LVU356
	.loc 1 227 66 is_stmt 0 view .LVU357
	cmpq	$-1, %r15
	je	.L59
	.loc 1 227 66 discriminator 1 view .LVU358
	movq	%r15, %rax
.LVL83:
	.loc 1 228 64 discriminator 1 view .LVU359
	pxor	%xmm0, %xmm0
	.loc 1 227 66 discriminator 1 view .LVU360
	shrq	$63, %rax
	addq	%r15, %rax
	sarq	%rax
	movq	%rax, %r15
.LVL84:
	.loc 1 228 41 discriminator 1 view .LVU361
	movq	%r12, %rax
	subq	%r15, %rax
	.loc 1 228 64 discriminator 1 view .LVU362
	cvtsi2sdq	%rax, %xmm0
	mulsd	.LC18(%rip), %xmm0
.L38:
.LVL85:
	.loc 1 228 9 is_stmt 1 discriminator 4 view .LVU363
	.loc 1 228 72 is_stmt 0 discriminator 4 view .LVU364
	pxor	%xmm1, %xmm1
	.loc 1 230 11 discriminator 4 view .LVU365
	cmpl	$24, 56(%rsp)
	.loc 1 228 72 discriminator 4 view .LVU366
	cvtsi2sdq	%r15, %xmm1
	.loc 1 228 16 discriminator 4 view .LVU367
	divsd	%xmm1, %xmm0
	movsd	%xmm0, 64(%rsp)
.LVL86:
	.loc 1 230 9 is_stmt 1 discriminator 4 view .LVU368
	.loc 1 230 11 is_stmt 0 discriminator 4 view .LVU369
	je	.L77
	.loc 1 231 32 is_stmt 1 view .LVU370
.LVL87:
.LBB250:
.LBI250:
	.loc 2 110 1 view .LVU371
.LBB251:
	.loc 2 112 3 view .LVU372
	.loc 2 112 10 is_stmt 0 view .LVU373
	leaq	.LC21(%rip), %rax
	movq	%r15, %rdx
	movl	$1, %edi
	movq	%rax, 16(%rsp)
	movq	%rax, %rsi
	xorl	%eax, %eax
	call	__printf_chk@PLT
.LVL88:
.L40:
	.loc 2 112 10 view .LVU374
.LBE251:
.LBE250:
	.loc 1 232 9 is_stmt 1 view .LVU375
	.loc 1 232 18 is_stmt 0 view .LVU376
	testq	%r12, %r12
	setg	%dl
	.loc 1 232 47 view .LVU377
	testq	%r15, %r15
	setg	%al
	.loc 1 232 11 view .LVU378
	andb	%al, %dl
	movb	%dl, 63(%rsp)
	je	.L41
	.loc 1 232 55 is_stmt 1 view .LVU379
.LVL89:
.LBB252:
.LBI252:
	.loc 2 110 1 view .LVU380
.LBB253:
	.loc 2 112 3 view .LVU381
	.loc 2 112 10 is_stmt 0 view .LVU382
	movsd	64(%rsp), %xmm0
	movl	$1, %edi
	movl	$1, %eax
	leaq	.LC22(%rip), %rsi
	call	__printf_chk@PLT
.LVL90:
	.loc 2 112 10 view .LVU383
.LBE253:
.LBE252:
	.loc 1 234 9 is_stmt 1 view .LVU384
.LBB254:
.LBI254:
	.loc 2 110 1 view .LVU385
.LBB255:
	.loc 2 112 3 view .LVU386
	.loc 2 112 10 is_stmt 0 view .LVU387
	movq	%r12, %rdx
	movl	$1, %edi
	xorl	%eax, %eax
	leaq	.LC23(%rip), %rsi
	call	__printf_chk@PLT
.LVL91:
	.loc 2 112 10 view .LVU388
.LBE255:
.LBE254:
	.loc 1 236 9 is_stmt 1 view .LVU389
.L42:
	.loc 1 237 53 is_stmt 0 discriminator 1 view .LVU390
	movq	24(%rsp), %rax
	.loc 1 237 61 discriminator 1 view .LVU391
	pxor	%xmm5, %xmm5
	.loc 1 238 61 discriminator 1 view .LVU392
	pxor	%xmm4, %xmm4
	.loc 1 236 53 discriminator 1 view .LVU393
	subq	%r12, %r13
.LVL92:
	.loc 1 239 61 discriminator 1 view .LVU394
	pxor	%xmm3, %xmm3
	.loc 1 240 61 discriminator 1 view .LVU395
	pxor	%xmm2, %xmm2
	.loc 1 236 61 discriminator 1 view .LVU396
	pxor	%xmm6, %xmm6
	movsd	.LC18(%rip), %xmm7
	.loc 1 241 61 discriminator 1 view .LVU397
	pxor	%xmm1, %xmm1
	.loc 1 236 61 discriminator 1 view .LVU398
	cvtsi2sdq	%r13, %xmm6
	.loc 1 236 69 discriminator 1 view .LVU399
	pxor	%xmm0, %xmm0
	.loc 1 237 53 discriminator 1 view .LVU400
	subq	%r12, %rax
	.loc 1 237 61 discriminator 1 view .LVU401
	cvtsi2sdq	%rax, %xmm5
	.loc 1 238 53 discriminator 1 view .LVU402
	movq	32(%rsp), %rax
	.loc 1 236 69 discriminator 1 view .LVU403
	cvtsi2sdq	%r12, %xmm0
	.loc 1 238 53 discriminator 1 view .LVU404
	subq	%r12, %rax
	.loc 1 238 61 discriminator 1 view .LVU405
	cvtsi2sdq	%rax, %xmm4
	.loc 1 239 53 discriminator 1 view .LVU406
	movq	40(%rsp), %rax
	.loc 1 236 61 discriminator 1 view .LVU407
	mulsd	%xmm7, %xmm6
	.loc 1 237 61 discriminator 1 view .LVU408
	mulsd	%xmm7, %xmm5
	.loc 1 239 53 discriminator 1 view .LVU409
	subq	%r12, %rax
	.loc 1 239 61 discriminator 1 view .LVU410
	cvtsi2sdq	%rax, %xmm3
	.loc 1 240 53 discriminator 1 view .LVU411
	movq	48(%rsp), %rax
	.loc 1 238 61 discriminator 1 view .LVU412
	mulsd	%xmm7, %xmm4
	.loc 1 236 45 discriminator 1 view .LVU413
	divsd	%xmm0, %xmm6
.LVL93:
	.loc 1 237 9 is_stmt 1 discriminator 1 view .LVU414
	.loc 1 240 53 is_stmt 0 discriminator 1 view .LVU415
	subq	%r12, %rax
	.loc 1 240 61 discriminator 1 view .LVU416
	cvtsi2sdq	%rax, %xmm2
	.loc 1 241 53 discriminator 1 view .LVU417
	movq	88(%rsp), %rax
	.loc 1 239 61 discriminator 1 view .LVU418
	mulsd	%xmm7, %xmm3
	.loc 1 241 53 discriminator 1 view .LVU419
	subq	%r12, %rax
	.loc 1 241 61 discriminator 1 view .LVU420
	cvtsi2sdq	%rax, %xmm1
	.loc 1 240 61 discriminator 1 view .LVU421
	mulsd	%xmm7, %xmm2
	.loc 1 241 61 discriminator 1 view .LVU422
	mulsd	%xmm7, %xmm1
	.loc 1 237 45 discriminator 1 view .LVU423
	divsd	%xmm0, %xmm5
.LVL94:
	.loc 1 238 9 is_stmt 1 discriminator 1 view .LVU424
	.loc 1 238 45 is_stmt 0 discriminator 1 view .LVU425
	divsd	%xmm0, %xmm4
.LVL95:
	.loc 1 239 9 is_stmt 1 discriminator 1 view .LVU426
	.loc 1 239 45 is_stmt 0 discriminator 1 view .LVU427
	divsd	%xmm0, %xmm3
.LVL96:
	.loc 1 240 9 is_stmt 1 discriminator 1 view .LVU428
	.loc 1 240 45 is_stmt 0 discriminator 1 view .LVU429
	divsd	%xmm0, %xmm2
.LVL97:
	.loc 1 241 9 is_stmt 1 discriminator 1 view .LVU430
	.loc 1 241 45 is_stmt 0 discriminator 1 view .LVU431
	divsd	%xmm0, %xmm1
.LVL98:
.L43:
.LBB257:
.LBB258:
	.loc 2 112 10 discriminator 4 view .LVU432
	leaq	.LC25(%rip), %r13
	movapd	%xmm6, %xmm0
	movl	$1, %edi
	movl	$1, %eax
	movq	%r13, %rsi
	movsd	%xmm1, 24(%rsp)
.LVL99:
	.loc 2 112 10 discriminator 4 view .LVU433
.LBE258:
.LBE257:
	.loc 1 243 9 is_stmt 1 discriminator 4 view .LVU434
.LBB260:
.LBI257:
	.loc 2 110 1 discriminator 4 view .LVU435
.LBB259:
	.loc 2 112 3 discriminator 4 view .LVU436
	movsd	%xmm2, 88(%rsp)
.LVL100:
	.loc 2 112 3 is_stmt 0 discriminator 4 view .LVU437
	movsd	%xmm3, 48(%rsp)
.LVL101:
	.loc 2 112 3 discriminator 4 view .LVU438
	movsd	%xmm4, 40(%rsp)
.LVL102:
	.loc 2 112 3 discriminator 4 view .LVU439
	movsd	%xmm5, 32(%rsp)
.LVL103:
	.loc 2 112 10 discriminator 4 view .LVU440
	call	__printf_chk@PLT
.LVL104:
	.loc 2 112 10 discriminator 4 view .LVU441
.LBE259:
.LBE260:
	.loc 1 244 9 is_stmt 1 discriminator 4 view .LVU442
.LBB261:
.LBI261:
	.loc 2 110 1 discriminator 4 view .LVU443
.LBB262:
	.loc 2 112 3 discriminator 4 view .LVU444
	.loc 2 112 10 is_stmt 0 discriminator 4 view .LVU445
	movsd	32(%rsp), %xmm5
	movq	%r13, %rsi
	movl	$1, %edi
	movl	$1, %eax
	movapd	%xmm5, %xmm0
	call	__printf_chk@PLT
.LVL105:
	.loc 2 112 10 discriminator 4 view .LVU446
.LBE262:
.LBE261:
	.loc 1 245 9 is_stmt 1 discriminator 4 view .LVU447
.LBB263:
.LBI263:
	.loc 2 110 1 discriminator 4 view .LVU448
.LBB264:
	.loc 2 112 3 discriminator 4 view .LVU449
	.loc 2 112 10 is_stmt 0 discriminator 4 view .LVU450
	movsd	40(%rsp), %xmm4
	movq	%r13, %rsi
	movl	$1, %edi
	movl	$1, %eax
	movapd	%xmm4, %xmm0
	call	__printf_chk@PLT
.LVL106:
	.loc 2 112 10 discriminator 4 view .LVU451
.LBE264:
.LBE263:
	.loc 1 246 9 is_stmt 1 discriminator 4 view .LVU452
.LBB265:
.LBI265:
	.loc 2 110 1 discriminator 4 view .LVU453
.LBB266:
	.loc 2 112 3 discriminator 4 view .LVU454
	.loc 2 112 10 is_stmt 0 discriminator 4 view .LVU455
	movsd	48(%rsp), %xmm3
	movq	%r13, %rsi
	movl	$1, %edi
	movl	$1, %eax
	movapd	%xmm3, %xmm0
	call	__printf_chk@PLT
.LVL107:
	.loc 2 112 10 discriminator 4 view .LVU456
.LBE266:
.LBE265:
	.loc 1 247 9 is_stmt 1 discriminator 4 view .LVU457
.LBB267:
.LBI267:
	.loc 2 110 1 discriminator 4 view .LVU458
.LBB268:
	.loc 2 112 3 discriminator 4 view .LVU459
	.loc 2 112 10 is_stmt 0 discriminator 4 view .LVU460
	movsd	88(%rsp), %xmm2
	movq	%r13, %rsi
	movl	$1, %edi
	movl	$1, %eax
	movapd	%xmm2, %xmm0
	call	__printf_chk@PLT
.LVL108:
	.loc 2 112 10 discriminator 4 view .LVU461
.LBE268:
.LBE267:
	.loc 1 248 9 is_stmt 1 discriminator 4 view .LVU462
.LBB269:
.LBI269:
	.loc 2 110 1 discriminator 4 view .LVU463
.LBB270:
	.loc 2 112 3 discriminator 4 view .LVU464
	.loc 2 112 10 is_stmt 0 discriminator 4 view .LVU465
	movsd	24(%rsp), %xmm1
	movl	$1, %edi
	leaq	.LC26(%rip), %rsi
	movl	$1, %eax
	movapd	%xmm1, %xmm0
	call	__printf_chk@PLT
.LVL109:
	.loc 2 112 10 discriminator 4 view .LVU466
.LBE270:
.LBE269:
	.loc 1 250 9 is_stmt 1 discriminator 4 view .LVU467
.LBB271:
.LBB272:
	.loc 1 18 5 is_stmt 0 discriminator 4 view .LVU468
	movq	8(%rsp), %rdi
	xorl	%esi, %esi
.LBE272:
.LBE271:
	.loc 1 250 9 discriminator 4 view .LVU469
	movq	use_what(%rip), %r13
.LBB277:
.LBI271:
	.loc 1 16 46 is_stmt 1 discriminator 4 view .LVU470
.LBB273:
	.loc 1 17 5 discriminator 4 view .LVU471
	.loc 1 18 5 discriminator 4 view .LVU472
	call	gettimeofday@PLT
.LVL110:
	.loc 1 19 5 discriminator 4 view .LVU473
	.loc 1 19 40 is_stmt 0 discriminator 4 view .LVU474
	pxor	%xmm0, %xmm0
	.loc 1 19 12 discriminator 4 view .LVU475
	pxor	%xmm1, %xmm1
.LBE273:
.LBE277:
.LBB278:
.LBB279:
	.loc 2 105 10 discriminator 4 view .LVU476
	movl	%ebp, %r8d
.LBE279:
.LBE278:
.LBB283:
.LBB274:
	.loc 1 19 40 discriminator 4 view .LVU477
	cvtsi2sdq	104(%rsp), %xmm0
.LBE274:
.LBE283:
.LBB284:
.LBB280:
	.loc 2 105 10 discriminator 4 view .LVU478
	movq	%r13, %rcx
	movl	$1, %esi
	movl	$1, %eax
.LBE280:
.LBE284:
.LBB285:
.LBB275:
	.loc 1 19 38 discriminator 4 view .LVU479
	mulsd	.LC0(%rip), %xmm0
	.loc 1 19 12 discriminator 4 view .LVU480
	cvtsi2sdq	96(%rsp), %xmm1
.LBE275:
.LBE285:
.LBB286:
.LBB281:
	.loc 2 105 10 discriminator 4 view .LVU481
	movq	stderr(%rip), %rdi
	leaq	.LC10(%rip), %rdx
.LBE281:
.LBE286:
.LBB287:
.LBB276:
	.loc 1 19 30 discriminator 4 view .LVU482
	addsd	%xmm1, %xmm0
.LVL111:
	.loc 1 19 30 discriminator 4 view .LVU483
.LBE276:
.LBE287:
.LBB288:
.LBI278:
	.loc 2 103 1 is_stmt 1 discriminator 4 view .LVU484
.LBB282:
	.loc 2 105 3 discriminator 4 view .LVU485
	.loc 2 105 10 is_stmt 0 discriminator 4 view .LVU486
	call	__fprintf_chk@PLT
.LVL112:
	.loc 2 105 10 discriminator 4 view .LVU487
.LBE282:
.LBE288:
	.loc 1 252 9 is_stmt 1 discriminator 4 view .LVU488
.LBB289:
.LBI289:
	.loc 2 103 1 discriminator 4 view .LVU489
.LBB290:
	.loc 2 105 3 discriminator 4 view .LVU490
	.loc 2 105 10 is_stmt 0 discriminator 4 view .LVU491
	movq	16(%rsp), %rdx
	xorl	%eax, %eax
	movq	%r15, %rcx
	movq	stderr(%rip), %rdi
	movl	$1, %esi
	call	__fprintf_chk@PLT
.LVL113:
	.loc 2 105 10 discriminator 4 view .LVU492
.LBE290:
.LBE289:
	.loc 1 253 9 is_stmt 1 discriminator 4 view .LVU493
	.loc 1 253 11 is_stmt 0 discriminator 4 view .LVU494
	cmpb	$0, 63(%rsp)
	je	.L44
	.loc 1 253 55 is_stmt 1 discriminator 1 view .LVU495
.LVL114:
.LBB291:
.LBI291:
	.loc 2 103 1 discriminator 1 view .LVU496
.LBB292:
	.loc 2 105 3 discriminator 1 view .LVU497
	.loc 2 105 10 is_stmt 0 discriminator 1 view .LVU498
	movsd	64(%rsp), %xmm0
	movl	$1, %esi
	movl	$1, %eax
	movq	stderr(%rip), %rdi
	leaq	.LC27(%rip), %rdx
	call	__fprintf_chk@PLT
.LVL115:
.L45:
	.loc 2 105 10 discriminator 1 view .LVU499
.LBE292:
.LBE291:
	.loc 1 255 9 is_stmt 1 view .LVU500
.LBB293:
.LBI293:
	.loc 2 103 1 view .LVU501
.LBB294:
	.loc 2 105 3 view .LVU502
	.loc 2 105 10 is_stmt 0 view .LVU503
	movq	16(%rsp), %rdx
	movq	%r12, %rcx
	movl	$1, %esi
	xorl	%eax, %eax
	movq	stderr(%rip), %rdi
.LBE294:
.LBE293:
.LBB296:
.LBB297:
.LBB298:
	leaq	.LC35(%rip), %r13
.LBE298:
.LBE297:
.LBB300:
.LBB301:
	leaq	.LC33(%rip), %rbp
.LVL116:
	.loc 2 105 10 view .LVU504
.LBE301:
.LBE300:
.LBE296:
.LBB337:
.LBB295:
	call	__fprintf_chk@PLT
.LVL117:
	.loc 2 105 10 view .LVU505
.LBE295:
.LBE337:
	.loc 1 257 9 is_stmt 1 view .LVU506
.LBB338:
	.loc 1 257 13 view .LVU507
	.loc 1 257 26 view .LVU508
	jmp	.L53
.LVL118:
	.p2align 4,,10
	.p2align 3
.L46:
	.loc 1 259 18 view .LVU509
	.loc 1 259 20 is_stmt 0 view .LVU510
	cmpq	$9899999, %rcx
	ja	.L78
	.loc 1 260 18 is_stmt 1 view .LVU511
	.loc 1 260 20 is_stmt 0 view .LVU512
	cmpq	$999999, %rcx
	ja	.L79
	.loc 1 261 18 is_stmt 1 view .LVU513
	.loc 1 261 20 is_stmt 0 view .LVU514
	cmpq	$9999, %rcx
	ja	.L80
	.loc 1 262 18 is_stmt 1 view .LVU515
	.loc 1 262 20 is_stmt 0 view .LVU516
	cmpq	$9899, %rcx
	ja	.L81
	.loc 1 263 18 is_stmt 1 view .LVU517
	.loc 1 263 20 is_stmt 0 view .LVU518
	cmpq	$999, %rcx
	jbe	.L52
	.loc 1 263 42 is_stmt 1 discriminator 1 view .LVU519
.LVL119:
.LBB305:
.LBI300:
	.loc 2 103 1 discriminator 1 view .LVU520
.LBB302:
	.loc 2 105 3 discriminator 1 view .LVU521
.LBE302:
.LBE305:
	.loc 1 263 42 is_stmt 0 discriminator 1 view .LVU522
	pxor	%xmm0, %xmm0
.LBB306:
.LBB303:
	.loc 2 105 10 discriminator 1 view .LVU523
	movq	%rbp, %rdx
	movl	$1, %esi
.LVL120:
	.loc 2 105 10 discriminator 1 view .LVU524
	movl	$1, %eax
.LBE303:
.LBE306:
	.loc 1 263 42 discriminator 1 view .LVU525
	cvtsi2sdq	%rcx, %xmm0
	divsd	.LC34(%rip), %xmm0
.LBB307:
.LBB304:
	.loc 2 105 10 discriminator 1 view .LVU526
	call	__fprintf_chk@PLT
.LVL121:
	.p2align 4,,10
	.p2align 3
.L47:
	.loc 2 105 10 discriminator 1 view .LVU527
.LBE304:
.LBE307:
	.loc 1 257 39 is_stmt 1 discriminator 2 view .LVU528
	.loc 1 257 26 discriminator 2 view .LVU529
	addq	$8, %rbx
.LVL122:
	.loc 1 257 26 is_stmt 0 discriminator 2 view .LVU530
	cmpq	%r14, %rbx
	je	.L82
.LVL123:
.L53:
	.loc 1 258 13 is_stmt 1 view .LVU531
	.loc 1 258 23 is_stmt 0 view .LVU532
	movq	(%rbx), %rcx
	.loc 1 258 42 view .LVU533
	movq	stderr(%rip), %rdi
	.loc 1 258 20 view .LVU534
	cmpq	$9999999, %rcx
	jbe	.L46
	.loc 1 258 42 is_stmt 1 discriminator 1 view .LVU535
.LVL124:
.LBB308:
.LBI308:
	.loc 2 103 1 discriminator 1 view .LVU536
.LBB309:
	.loc 2 105 3 discriminator 1 view .LVU537
.LBE309:
.LBE308:
	.loc 1 258 42 is_stmt 0 discriminator 1 view .LVU538
	movq	%rcx, %rax
.LBB313:
.LBB310:
	.loc 2 105 10 discriminator 1 view .LVU539
	movl	$1, %esi
.LVL125:
	.loc 2 105 10 discriminator 1 view .LVU540
.LBE310:
.LBE313:
	.loc 1 257 26 discriminator 1 view .LVU541
	addq	$8, %rbx
.LVL126:
	.loc 1 258 42 discriminator 1 view .LVU542
	movabsq	$4835703278458516699, %rdx
	mulq	%rdx
.LBB314:
.LBB311:
	.loc 2 105 10 discriminator 1 view .LVU543
	xorl	%eax, %eax
.LBE311:
.LBE314:
	.loc 1 258 42 discriminator 1 view .LVU544
	shrq	$18, %rdx
	movq	%rdx, %rcx
.LBB315:
.LBB312:
	.loc 2 105 10 discriminator 1 view .LVU545
	leaq	.LC28(%rip), %rdx
	call	__fprintf_chk@PLT
.LVL127:
	.loc 2 105 10 discriminator 1 view .LVU546
.LBE312:
.LBE315:
	.loc 1 257 39 is_stmt 1 discriminator 1 view .LVU547
	.loc 1 257 26 discriminator 1 view .LVU548
	cmpq	%r14, %rbx
	jne	.L53
.L82:
.LBE338:
	.loc 1 266 9 view .LVU549
.LVL128:
.LBB339:
.LBI339:
	.loc 2 103 1 view .LVU550
.LBB340:
	.loc 2 105 3 view .LVU551
	.loc 2 105 10 is_stmt 0 view .LVU552
	movq	stderr(%rip), %rsi
	movl	$10, %edi
	call	fputc@PLT
.LVL129:
	.loc 2 105 10 view .LVU553
.LBE340:
.LBE339:
	.loc 1 268 9 is_stmt 1 view .LVU554
	.loc 1 268 16 is_stmt 0 view .LVU555
	movsd	80(%rsp), %xmm1
	subsd	72(%rsp), %xmm1
.LVL130:
	.loc 1 269 9 is_stmt 1 view .LVU556
	.loc 1 270 9 view .LVU557
	.loc 1 271 9 view .LVU558
	.loc 1 271 11 is_stmt 0 view .LVU559
	testq	%r12, %r12
	jne	.L54
.LBB341:
.LBB342:
	.loc 2 112 10 view .LVU560
	leaq	.LC19(%rip), %rdx
	leaq	.LC36(%rip), %rsi
	movl	$1, %edi
.LVL131:
	.loc 2 112 10 view .LVU561
	xorl	%eax, %eax
	movsd	%xmm1, 16(%rsp)
.LBE342:
.LBE341:
	.loc 1 271 25 is_stmt 1 view .LVU562
.LVL132:
.LBB344:
.LBI341:
	.loc 2 110 1 view .LVU563
.LBB343:
	.loc 2 112 3 view .LVU564
	.loc 2 112 10 is_stmt 0 view .LVU565
	call	__printf_chk@PLT
.LVL133:
	.loc 2 112 10 view .LVU566
	movsd	16(%rsp), %xmm1
.LVL134:
.L55:
	.loc 2 112 10 view .LVU567
.LBE343:
.LBE344:
	.loc 1 273 9 is_stmt 1 discriminator 2 view .LVU568
.LBB345:
.LBI345:
	.loc 2 110 1 discriminator 2 view .LVU569
.LBB346:
	.loc 2 112 3 discriminator 2 view .LVU570
	.loc 2 112 10 is_stmt 0 discriminator 2 view .LVU571
	movapd	%xmm1, %xmm0
	movl	$1, %edi
.LVL135:
	.loc 2 112 10 discriminator 2 view .LVU572
	movl	$1, %eax
	leaq	.LC38(%rip), %rsi
	call	__printf_chk@PLT
.LVL136:
	.loc 2 112 10 discriminator 2 view .LVU573
.LBE346:
.LBE345:
	.loc 1 274 9 is_stmt 1 discriminator 2 view .LVU574
.LBB347:
.LBI347:
	.loc 2 110 1 discriminator 2 view .LVU575
.LBB348:
	.loc 2 112 3 discriminator 2 view .LVU576
	.loc 2 112 10 is_stmt 0 discriminator 2 view .LVU577
	leaq	.LC39(%rip), %rdi
	call	puts@PLT
.LVL137:
	.loc 2 112 10 discriminator 2 view .LVU578
.LBE348:
.LBE347:
.LBE216:
	.loc 1 208 46 is_stmt 1 discriminator 2 view .LVU579
	subl	$1, 56(%rsp)
.LVL138:
	.loc 1 208 46 is_stmt 0 discriminator 2 view .LVU580
	movl	56(%rsp), %eax
.LVL139:
	.loc 1 208 35 is_stmt 1 discriminator 2 view .LVU581
	cmpl	$-1, %eax
	jne	.L56
.LBE215:
	.loc 1 276 5 view .LVU582
	.loc 1 276 16 is_stmt 0 view .LVU583
	movq	iterations(%rip), %rax
.LVL140:
	.loc 1 277 15 view .LVU584
	addq	$1, iteration(%rip)
	.loc 1 276 16 view .LVU585
	subq	$1, %rax
	movq	%rax, iterations(%rip)
	.loc 1 277 5 is_stmt 1 view .LVU586
	.loc 1 278 5 view .LVU587
	.loc 1 278 7 is_stmt 0 view .LVU588
	testq	%rax, %rax
	jne	.L28
	.loc 1 281 5 is_stmt 1 view .LVU589
.LBB369:
.LBB370:
	.loc 1 18 5 is_stmt 0 view .LVU590
	movq	8(%rsp), %rdi
	xorl	%esi, %esi
.LBE370:
.LBE369:
	.loc 1 281 5 view .LVU591
	movq	use_what(%rip), %r12
.LVL141:
.LBB375:
.LBI369:
	.loc 1 16 46 is_stmt 1 view .LVU592
.LBB371:
	.loc 1 17 5 view .LVU593
	.loc 1 18 5 view .LVU594
	call	gettimeofday@PLT
.LVL142:
	.loc 1 19 5 view .LVU595
	.loc 1 19 40 is_stmt 0 view .LVU596
	pxor	%xmm0, %xmm0
	.loc 1 19 12 view .LVU597
	pxor	%xmm1, %xmm1
.LBE371:
.LBE375:
.LBB376:
.LBB377:
	.loc 2 112 10 view .LVU598
	movq	%r12, %rdx
.LBE377:
.LBE376:
.LBB381:
.LBB372:
	.loc 1 19 40 view .LVU599
	cvtsi2sdq	104(%rsp), %xmm0
.LBE372:
.LBE381:
.LBB382:
.LBB378:
	.loc 2 112 10 view .LVU600
	movl	$1, %edi
	.loc 2 112 10 view .LVU601
	movl	$1, %eax
.LBE378:
.LBE382:
.LBB383:
.LBB373:
	.loc 1 19 38 view .LVU602
	mulsd	.LC0(%rip), %xmm0
	.loc 1 19 12 view .LVU603
	cvtsi2sdq	96(%rsp), %xmm1
.LBE373:
.LBE383:
.LBB384:
.LBB379:
	.loc 2 112 10 view .LVU604
	leaq	.LC40(%rip), %rsi
.LBE379:
.LBE384:
.LBB385:
.LBB374:
	.loc 1 19 30 view .LVU605
	addsd	%xmm1, %xmm0
.LVL143:
	.loc 1 19 30 view .LVU606
.LBE374:
.LBE385:
.LBB386:
.LBI376:
	.loc 2 110 1 is_stmt 1 view .LVU607
.LBB380:
	.loc 2 112 3 view .LVU608
	.loc 2 112 10 is_stmt 0 view .LVU609
	call	__printf_chk@PLT
.LVL144:
	.loc 2 112 10 view .LVU610
.LBE380:
.LBE386:
	.loc 1 282 1 view .LVU611
	movq	120(%rsp), %rax
	subq	%fs:40, %rax
	jne	.L83
	addq	$136, %rsp
	.cfi_remember_state
	.cfi_def_cfa_offset 56
	xorl	%eax, %eax
	popq	%rbx
	.cfi_def_cfa_offset 48
	popq	%rbp
	.cfi_def_cfa_offset 40
	popq	%r12
	.cfi_def_cfa_offset 32
	popq	%r13
	.cfi_def_cfa_offset 24
	popq	%r14
	.cfi_def_cfa_offset 16
	popq	%r15
	.cfi_def_cfa_offset 8
.LVL145:
	.loc 1 282 1 view .LVU612
	ret
.LVL146:
	.p2align 4,,10
	.p2align 3
.L78:
	.cfi_restore_state
.LBB387:
.LBB367:
.LBB349:
	.loc 1 259 42 is_stmt 1 discriminator 1 view .LVU613
.LBB316:
.LBI316:
	.loc 2 103 1 discriminator 1 view .LVU614
.LBB317:
	.loc 2 105 3 discriminator 1 view .LVU615
	.loc 2 105 10 is_stmt 0 discriminator 1 view .LVU616
	movsd	.LC29(%rip), %xmm0
	movl	$1, %esi
.LVL147:
	.loc 2 105 10 discriminator 1 view .LVU617
	movl	$1, %eax
	leaq	.LC30(%rip), %rdx
	call	__fprintf_chk@PLT
.LVL148:
	.loc 2 105 10 discriminator 1 view .LVU618
	jmp	.L47
.LVL149:
	.p2align 4,,10
	.p2align 3
.L79:
	.loc 2 105 10 discriminator 1 view .LVU619
.LBE317:
.LBE316:
	.loc 1 260 42 is_stmt 1 discriminator 1 view .LVU620
.LBB318:
.LBI318:
	.loc 2 103 1 discriminator 1 view .LVU621
.LBB319:
	.loc 2 105 3 discriminator 1 view .LVU622
.LBE319:
.LBE318:
	.loc 1 260 42 is_stmt 0 discriminator 1 view .LVU623
	pxor	%xmm0, %xmm0
.LBB323:
.LBB320:
	.loc 2 105 10 discriminator 1 view .LVU624
	movl	$1, %esi
.LVL150:
	.loc 2 105 10 discriminator 1 view .LVU625
	movl	$1, %eax
.LBE320:
.LBE323:
	.loc 1 260 42 discriminator 1 view .LVU626
	cvtsi2sdq	%rcx, %xmm0
.LBB324:
.LBB321:
	.loc 2 105 10 discriminator 1 view .LVU627
	leaq	.LC30(%rip), %rdx
.LBE321:
.LBE324:
	.loc 1 260 42 discriminator 1 view .LVU628
	divsd	.LC31(%rip), %xmm0
.LBB325:
.LBB322:
	.loc 2 105 10 discriminator 1 view .LVU629
	call	__fprintf_chk@PLT
.LVL151:
	.loc 2 105 10 discriminator 1 view .LVU630
	jmp	.L47
.LVL152:
	.p2align 4,,10
	.p2align 3
.L80:
	.loc 2 105 10 discriminator 1 view .LVU631
.LBE322:
.LBE325:
	.loc 1 261 42 is_stmt 1 discriminator 1 view .LVU632
.LBB326:
.LBI326:
	.loc 2 103 1 discriminator 1 view .LVU633
.LBB327:
	.loc 2 105 3 discriminator 1 view .LVU634
.LBE327:
.LBE326:
	.loc 1 261 42 is_stmt 0 discriminator 1 view .LVU635
	shrq	$3, %rcx
.LBB331:
.LBB328:
	.loc 2 105 10 discriminator 1 view .LVU636
	movl	$1, %esi
.LVL153:
	.loc 2 105 10 discriminator 1 view .LVU637
.LBE328:
.LBE331:
	.loc 1 261 42 discriminator 1 view .LVU638
	movabsq	$2361183241434822607, %rdx
	movq	%rcx, %rax
	mulq	%rdx
.LBB332:
.LBB329:
	.loc 2 105 10 discriminator 1 view .LVU639
	xorl	%eax, %eax
.LBE329:
.LBE332:
	.loc 1 261 42 discriminator 1 view .LVU640
	shrq	$4, %rdx
	movq	%rdx, %rcx
.LBB333:
.LBB330:
	.loc 2 105 10 discriminator 1 view .LVU641
	leaq	.LC32(%rip), %rdx
	call	__fprintf_chk@PLT
.LVL154:
	.loc 2 105 10 discriminator 1 view .LVU642
	jmp	.L47
.LVL155:
	.p2align 4,,10
	.p2align 3
.L52:
	.loc 2 105 10 discriminator 1 view .LVU643
.LBE330:
.LBE333:
	.loc 1 264 42 is_stmt 1 view .LVU644
.LBB334:
.LBI297:
	.loc 2 103 1 view .LVU645
.LBB299:
	.loc 2 105 3 view .LVU646
	.loc 2 105 10 is_stmt 0 view .LVU647
	movq	%r13, %rdx
	movl	$1, %esi
.LVL156:
	.loc 2 105 10 view .LVU648
	xorl	%eax, %eax
	call	__fprintf_chk@PLT
.LVL157:
	.loc 2 105 10 view .LVU649
	jmp	.L47
.LVL158:
	.p2align 4,,10
	.p2align 3
.L81:
	.loc 2 105 10 view .LVU650
.LBE299:
.LBE334:
	.loc 1 262 42 is_stmt 1 discriminator 1 view .LVU651
.LBB335:
.LBI335:
	.loc 2 103 1 discriminator 1 view .LVU652
.LBB336:
	.loc 2 105 3 discriminator 1 view .LVU653
	.loc 2 105 10 is_stmt 0 discriminator 1 view .LVU654
	movq	.LC29(%rip), %rax
	movq	%rbp, %rdx
	movl	$1, %esi
.LVL159:
	.loc 2 105 10 discriminator 1 view .LVU655
	movq	%rax, %xmm0
	movl	$1, %eax
	call	__fprintf_chk@PLT
.LVL160:
	.loc 2 105 10 discriminator 1 view .LVU656
	jmp	.L47
.LVL161:
.L54:
	.loc 2 105 10 discriminator 1 view .LVU657
.LBE336:
.LBE335:
.LBE349:
	.loc 1 269 44 view .LVU658
	leaq	(%r12,%r12,4), %rax
	.loc 1 270 59 view .LVU659
	movapd	%xmm1, %xmm0
	.loc 1 269 55 view .LVU660
	pxor	%xmm2, %xmm2
.LBB350:
.LBB351:
	.loc 2 112 10 view .LVU661
	movl	$1, %edi
.LVL162:
	.loc 2 112 10 view .LVU662
.LBE351:
.LBE350:
	.loc 1 269 44 view .LVU663
	leaq	(%rax,%rax,4), %rax
.LBB356:
.LBB352:
	.loc 2 112 10 view .LVU664
	leaq	.LC37(%rip), %rsi
.LBE352:
.LBE356:
	.loc 1 270 59 view .LVU665
	movsd	%xmm1, 16(%rsp)
	.loc 1 269 44 view .LVU666
	salq	$3, %rax
	.loc 1 269 55 view .LVU667
	cvtsi2sdq	%rax, %xmm2
	.loc 1 269 16 view .LVU668
	divsd	.LC1(%rip), %xmm2
	.loc 1 272 25 is_stmt 1 view .LVU669
.LVL163:
.LBB357:
.LBI350:
	.loc 2 110 1 view .LVU670
.LBB353:
	.loc 2 112 3 view .LVU671
.LBE353:
.LBE357:
	.loc 1 270 59 is_stmt 0 view .LVU672
	subsd	%xmm2, %xmm0
	.loc 1 270 82 view .LVU673
	mulsd	.LC18(%rip), %xmm0
.LBB358:
.LBB354:
	.loc 2 112 10 view .LVU674
	movl	$1, %eax
.LBE354:
.LBE358:
	.loc 1 270 16 view .LVU675
	divsd	%xmm2, %xmm0
.LBB359:
.LBB355:
	.loc 2 112 10 view .LVU676
	call	__printf_chk@PLT
.LVL164:
	.loc 2 112 10 view .LVU677
	movsd	16(%rsp), %xmm1
	jmp	.L55
.LVL165:
.L44:
	.loc 2 112 10 view .LVU678
.LBE355:
.LBE359:
	.loc 1 254 55 is_stmt 1 view .LVU679
.LBB360:
.LBI360:
	.loc 2 103 1 view .LVU680
.LBB361:
	.loc 2 105 3 view .LVU681
	.loc 2 105 10 is_stmt 0 view .LVU682
	movq	stderr(%rip), %rdi
	leaq	.LC19(%rip), %rcx
	leaq	.LC20(%rip), %rdx
	xorl	%eax, %eax
	movl	$1, %esi
	call	__fprintf_chk@PLT
.LVL166:
	.loc 2 105 10 view .LVU683
	jmp	.L45
.LVL167:
.L41:
	.loc 2 105 10 view .LVU684
.LBE361:
.LBE360:
	.loc 1 233 55 is_stmt 1 view .LVU685
.LBB362:
.LBI362:
	.loc 2 110 1 view .LVU686
.LBB363:
	.loc 2 112 3 view .LVU687
	.loc 2 112 10 is_stmt 0 view .LVU688
	leaq	.LC19(%rip), %rdx
	leaq	.LC24(%rip), %rsi
	movl	$1, %edi
	xorl	%eax, %eax
	call	__printf_chk@PLT
.LVL168:
	.loc 2 112 10 view .LVU689
.LBE363:
.LBE362:
	.loc 1 234 9 is_stmt 1 view .LVU690
.LBB364:
	.loc 2 110 1 view .LVU691
.LBB256:
	.loc 2 112 3 view .LVU692
	.loc 2 112 10 is_stmt 0 view .LVU693
	xorl	%eax, %eax
	movq	%r12, %rdx
	movl	$1, %edi
	leaq	.LC23(%rip), %rsi
	call	__printf_chk@PLT
.LVL169:
	.loc 2 112 10 view .LVU694
.LBE256:
.LBE364:
	.loc 1 236 9 is_stmt 1 view .LVU695
	.loc 1 236 45 is_stmt 0 view .LVU696
	testq	%r12, %r12
	jne	.L42
	.loc 1 240 45 view .LVU697
	pxor	%xmm2, %xmm2
	.loc 1 239 45 view .LVU698
	movapd	%xmm2, %xmm3
	.loc 1 238 45 view .LVU699
	movapd	%xmm2, %xmm4
	.loc 1 237 45 view .LVU700
	movapd	%xmm2, %xmm5
	.loc 1 236 45 view .LVU701
	movapd	%xmm2, %xmm6
	.loc 1 241 45 view .LVU702
	movapd	%xmm2, %xmm1
	jmp	.L43
.LVL170:
.L59:
	.loc 1 241 45 view .LVU703
	movq	%r12, %r15
.LVL171:
	.loc 1 241 45 view .LVU704
	pxor	%xmm0, %xmm0
	jmp	.L38
.LVL172:
.L77:
	.loc 1 230 32 is_stmt 1 view .LVU705
.LBB365:
.LBI365:
	.loc 2 110 1 view .LVU706
.LBB366:
	.loc 2 112 3 view .LVU707
	.loc 2 112 10 is_stmt 0 view .LVU708
	leaq	.LC19(%rip), %rdx
	leaq	.LC20(%rip), %rsi
	movl	$1, %edi
	xorl	%eax, %eax
	call	__printf_chk@PLT
.LVL173:
	.loc 2 112 10 view .LVU709
	leaq	.LC21(%rip), %rax
	movq	%rax, 16(%rsp)
	jmp	.L40
.LVL174:
.L69:
	.loc 2 112 10 view .LVU710
.LBE366:
.LBE365:
.LBE367:
.LBE387:
	.loc 1 194 50 view .LVU711
	movl	$3, %eax
	jmp	.L27
.LVL175:
.L71:
.LBB388:
.LBB368:
	.loc 1 221 70 is_stmt 1 discriminator 1 view .LVU712
	leaq	__PRETTY_FUNCTION__.0(%rip), %rcx
	movl	$221, %edx
	leaq	.LC11(%rip), %rsi
	leaq	.LC12(%rip), %rdi
	call	__assert_fail@PLT
.LVL176:
.L72:
	.loc 1 222 70 discriminator 1 view .LVU713
	leaq	__PRETTY_FUNCTION__.0(%rip), %rcx
	movl	$222, %edx
	leaq	.LC11(%rip), %rsi
	leaq	.LC13(%rip), %rdi
	call	__assert_fail@PLT
.LVL177:
.L73:
	.loc 1 223 70 discriminator 1 view .LVU714
	leaq	__PRETTY_FUNCTION__.0(%rip), %rcx
	movl	$223, %edx
	leaq	.LC11(%rip), %rsi
	leaq	.LC14(%rip), %rdi
	call	__assert_fail@PLT
.LVL178:
.L74:
	.loc 1 224 70 discriminator 1 view .LVU715
	leaq	__PRETTY_FUNCTION__.0(%rip), %rcx
	movl	$224, %edx
	leaq	.LC11(%rip), %rsi
	leaq	.LC15(%rip), %rdi
	call	__assert_fail@PLT
.LVL179:
.L75:
	.loc 1 225 70 discriminator 1 view .LVU716
	leaq	__PRETTY_FUNCTION__.0(%rip), %rcx
	movl	$225, %edx
	leaq	.LC11(%rip), %rsi
	leaq	.LC16(%rip), %rdi
	call	__assert_fail@PLT
.LVL180:
.L76:
	.loc 1 226 70 discriminator 1 view .LVU717
	leaq	__PRETTY_FUNCTION__.0(%rip), %rcx
	movl	$226, %edx
	leaq	.LC11(%rip), %rsi
	leaq	.LC17(%rip), %rdi
	call	__assert_fail@PLT
.LVL181:
.L83:
	.loc 1 226 70 is_stmt 0 discriminator 1 view .LVU718
.LBE368:
.LBE388:
	.loc 1 282 1 view .LVU719
	call	__stack_chk_fail@PLT
.LVL182:
	.cfi_endproc
.LFE65:
	.size	main, .-main
	.section	.rodata
	.type	__PRETTY_FUNCTION__.0, @object
	.size	__PRETTY_FUNCTION__.0, 5
__PRETTY_FUNCTION__.0:
	.string	"main"
	.globl	header_width
	.align 32
	.type	header_width, @object
	.size	header_width, 48
header_width:
	.long	10
	.long	8
	.long	11
	.long	9
	.long	9
	.long	9
	.long	9
	.long	9
	.long	11
	.long	7
	.long	9
	.long	10
	.globl	header_text
	.section	.rodata.str1.1
.LC41:
	.string	"last_p0/2"
.LC42:
	.string	"p0/2+%"
.LC43:
	.string	"p0"
.LC44:
	.string	"p1=p0+%"
.LC45:
	.string	"p25=p0+%"
.LC46:
	.string	"p50=p0+%"
.LC47:
	.string	"p75=p0+%"
.LC48:
	.string	"p99=p0+%"
.LC49:
	.string	"p100=p0+%"
.LC50:
	.string	"p0*R+%"
.LC51:
	.string	"=row_sec"
	.section	.data.rel.local,"aw"
	.align 32
	.type	header_text, @object
	.size	header_text, 96
header_text:
	.quad	.LC41
	.quad	.LC42
	.quad	.LC43
	.quad	.LC44
	.quad	.LC45
	.quad	.LC46
	.quad	.LC47
	.quad	.LC48
	.quad	.LC49
	.quad	.LC50
	.quad	.LC51
	.quad	.LC5
	.globl	ns_sorted
	.bss
	.align 32
	.type	ns_sorted, @object
	.size	ns_sorted, 1600
ns_sorted:
	.zero	1600
	.globl	ns
	.align 32
	.type	ns, @object
	.size	ns, 1600
ns:
	.zero	1600
	.globl	tv_start
	.align 16
	.type	tv_start, @object
	.size	tv_start, 16
tv_start:
	.zero	16
	.globl	use_what
	.section	.rodata.str1.1
.LC52:
	.string	"gtofd"
	.section	.data.rel.local
	.align 8
	.type	use_what, @object
	.size	use_what, 8
use_what:
	.quad	.LC52
	.globl	invokes
	.data
	.align 8
	.type	invokes, @object
	.size	invokes, 8
invokes:
	.quad	2000000
	.globl	iteration
	.align 8
	.type	iteration, @object
	.size	iteration, 8
iteration:
	.quad	1
	.globl	iterations
	.align 8
	.type	iterations, @object
	.size	iterations, 8
iterations:
	.quad	3
	.section	.rodata.cst8,"aM",@progbits,8
	.align 8
.LC0:
	.long	-1598689907
	.long	1051772663
	.align 8
.LC1:
	.long	0
	.long	1104006501
	.align 8
.LC2:
	.long	0
	.long	1138753536
	.align 8
.LC18:
	.long	0
	.long	1079574528
	.align 8
.LC29:
	.long	-858993459
	.long	1076088012
	.align 8
.LC31:
	.long	0
	.long	1093567616
	.align 8
.LC34:
	.long	0
	.long	1083129856
	.text
.Letext0:
	.file 4 "/usr/lib/gcc/x86_64-linux-gnu/11/include/stddef.h"
	.file 5 "/usr/include/x86_64-linux-gnu/bits/types.h"
	.file 6 "/usr/include/x86_64-linux-gnu/bits/types/struct_FILE.h"
	.file 7 "/usr/include/x86_64-linux-gnu/bits/types/FILE.h"
	.file 8 "/usr/include/x86_64-linux-gnu/bits/stdint-intn.h"
	.file 9 "/usr/include/x86_64-linux-gnu/bits/stdint-uintn.h"
	.file 10 "/usr/include/x86_64-linux-gnu/bits/types/struct_timeval.h"
	.file 11 "/usr/include/stdio.h"
	.file 12 "/usr/include/assert.h"
	.file 13 "/usr/include/locale.h"
	.file 14 "/usr/include/x86_64-linux-gnu/sys/time.h"
	.file 15 "<built-in>"
	.file 16 "/usr/include/x86_64-linux-gnu/bits/sched.h"
	.section	.note.GNU-stack,"",@progbits
	.section	.note.gnu.property,"a"
	.align 8
	.long	1f - 0f
	.long	4f - 1f
	.long	5
0:
	.string	"GNU"
1:
	.align 8
	.long	0xc0000002
	.long	3f - 2f
2:
	.long	0x3
3:
	.align 8
4:
